c__builtin__
set
p0
((lp1
I32768
aI32769
aI3
aI32772
aI5
aI6
aI8
aI92844
aI10
aI12
aI13
aI14
aI15
aI16
aI18
aI32771
aI20
aI21
aI22
aI53465
aI24
aI25
aI26
aI86200
aI28
aI87386
aI32798
aI31
aI32800
aI34
aI35
aI37
aI66560
aI39
aI40
aI41
aI32810
aI43
aI32812
aI45
aI46
aI47
aI48
aI49
aI52
aI53
aI32822
aI32825
aI58
aI59
aI60
aI61
aI62
aI64
aI65
aI66
aI67
aI69
aI73
aI75
aI77
aI79
aI80
aI81
aI32851
aI32853
aI86
aI87
aI32856
aI90
aI32783
aI92
aI32861
aI94
aI96
aI65552
aI98
aI99
aI65636
aI101
aI32870
aI103
aI104
aI32873
aI106
aI32875
aI108
aI109
aI32878
aI111
aI32880
aI113
aI65555
aI116
aI117
aI118
aI65655
aI121
aI32890
aI123
aI75292
aI127
aI32896
aI82930
aI130
aI49174
aI65670
aI65671
aI136
aI138
aI139
aI140
aI141
aI32910
aI32911
aI32912
aI65560
aI32914
aI32915
aI32916
aI149
aI152
aI153
aI154
aI156
aI32794
aI159
aI160
aI163
aI165
aI166
aI167
aI168
aI169
aI32939
aI32940
aI44737
aI65712
aI32945
aI178
aI54643
aI65717
aI182
aI32951
aI184
aI185
aI32799
aI82932
aI32958
aI191
aI32960
aI32961
aI65730
aI195
aI32964
aI32966
aI199
aI200
aI201
aI203
aI204
aI65741
aI206
aI32975
aI32803
aI212
aI213
aI71033
aI218
aI220
aI222
aI224
aI32993
aI65762
aI32997
aI65766
aI33001
aI33003
aI236
aI65774
aI32808
aI242
aI243
aI244
aI245
aI247
aI248
aI249
aI33018
aI251
aI253
aI47138
aI255
aI65792
aI257
aI258
aI259
aI33028
aI65798
aI263
aI39282
aI44
aI269
aI270
aI32813
aI272
aI33043
aI82927
aI65814
aI280
aI33051
aI284
aI285
aI65822
aI75071
aI32816
aI33058
aI78571
aI296
aI65834
aI52384
aI33068
aI302
aI65841
aI50202
aI307
aI43907
aI33079
aI312
aI313
aI314
aI315
aI316
aI319
aI320
aI96239
aI322
aI323
aI324
aI325
aI33094
aI327
aI71052
aI330
aI332
aI333
aI335
aI339
aI342
aI49209
aI344
aI346
aI347
aI348
aI65594
aI351
aI353
aI33122
aI33123
aI74635
aI358
aI33127
aI33129
aI65898
aI68130
aI65597
aI33136
aI33137
aI33138
aI33139
aI372
aI32830
aI33142
aI33144
aI377
aI33146
aI379
aI65916
aI381
aI382
aI384
aI33153
aI386
aI388
aI389
aI390
aI33159
aI65928
aI33162
aI33838
aI396
aI397
aI399
aI24018
aI33169
aI404
aI65941
aI406
aI407
aI33177
aI410
aI411
aI413
aI415
aI65952
aI417
aI33186
aI65955
aI420
aI422
aI65960
aI65962
aI91669
aI429
aI33198
aI33200
aI434
aI92915
aI436
aI439
aI440
aI441
aI442
aI33211
aI444
aI447
aI87456
aI450
aI452
aI453
aI454
aI455
aI456
aI458
aI460
aI87458
aI33230
aI463
aI464
aI466
aI469
aI33241
aI66011
aI476
aI477
aI86215
aI33247
aI481
aI93016
aI92762
aI66021
aI486
aI33255
aI33256
aI33257
aI54695
aI33260
aI495
aI496
aI33266
aI500
aI501
aI66038
aI66039
aI504
aI505
aI506
aI66043
aI66045
aI66046
aI33279
aI514
aI33283
aI33284
aI33285
aI33286
aI519
aI87468
aI522
aI32855
aI66060
aI66061
aI527
aI528
aI529
aI93854
aI532
aI535
aI536
aI537
aI539
aI540
aI541
aI542
aI66079
aI33312
aI546
aI66084
aI550
aI552
aI66089
aI554
aI555
aI33324
aI33325
aI92746
aI559
aI66096
aI562
aI563
aI565
aI43785
aI80089
aI570
aI571
aI74200
aI575
aI66112
aI32864
aI33347
aI581
aI582
aI586
aI587
aI588
aI33357
aI590
aI591
aI592
aI593
aI594
aI32867
aI33366
aI33367
aI600
aI601
aI66138
aI66139
aI604
aI607
aI66144
aI609
aI610
aI611
aI612
aI614
aI92945
aI616
aI618
aI32871
aI620
aI621
aI622
aI623
aI87311
aI625
aI626
aI33396
aI33399
aI632
aI66169
aI634
aI33403
aI636
aI637
aI91676
aI639
aI33408
aI33410
aI643
aI648
aI649
aI651
aI66190
aI66191
aI656
aI92952
aI662
aI663
aI665
aI666
aI66203
aI668
aI669
aI670
aI71109
aI672
aI33441
aI675
aI676
aI66215
aI680
aI682
aI33451
aI686
aI33455
aI33456
aI689
aI690
aI691
aI692
aI695
aI33468
aI701
aI703
aI704
aI705
aI706
aI33475
aI708
aI33477
aI710
aI713
aI715
aI33484
aI717
aI66255
aI66256
aI721
aI33490
aI66259
aI724
aI725
aI726
aI728
aI729
aI733
aI81859
aI736
aI71120
aI738
aI739
aI740
aI741
aI38353
aI33513
aI746
aI66283
aI748
aI33517
aI79875
aI33520
aI753
aI754
aI755
aI756
aI33526
aI759
aI760
aI761
aI762
aI32895
aI764
aI767
aI769
aI770
aI43819
aI772
aI773
aI775
aI776
aI66313
aI66315
aI780
aI33549
aI782
aI33551
aI785
aI787
aI788
aI789
aI790
aI33559
aI792
aI793
aI794
aI795
aI33565
aI798
aI33567
aI33568
aI802
aI71131
aI66342
aI33575
aI66344
aI38364
aI33579
aI33581
aI815
aI816
aI817
aI818
aI819
aI820
aI821
aI823
aI33593
aI827
aI828
aI33597
aI66368
aI833
aI66370
aI66371
aI66372
aI60214
aI838
aI839
aI840
aI65676
aI844
aI845
aI66382
aI847
aI849
aI33618
aI87523
aI82062
aI66390
aI33623
aI33624
aI33625
aI859
aI33628
aI66397
aI33631
aI864
aI865
aI866
aI867
aI33637
aI870
aI872
aI43836
aI875
aI877
aI879
aI66417
aI882
aI884
aI885
aI886
aI33656
aI33657
aI66426
aI92991
aI66428
aI893
aI894
aI32917
aI897
aI898
aI899
aI900
aI66437
aI33670
aI903
aI906
aI907
aI908
aI33677
aI57860
aI911
aI65498
aI66449
aI914
aI33684
aI84323
aI918
aI919
aI33688
aI921
aI922
aI33691
aI924
aI32922
aI926
aI927
aI33696
aI929
aI931
aI33700
aI934
aI67001
aI84048
aI33705
aI938
aI939
aI941
aI66478
aI32925
aI944
aI945
aI946
aI66483
aI948
aI69838
aI950
aI33719
aI952
aI33721
aI33722
aI43850
aI958
aI38389
aI960
aI961
aI33730
aI60235
aI66500
aI965
aI966
aI967
aI970
aI33739
aI33742
aI977
aI978
aI979
aI980
aI981
aI982
aI983
aI33753
aI33755
aI33756
aI989
aI991
aI33760
aI993
aI33762
aI995
aI996
aI32934
aI1001
aI93925
aI32935
aI71165
aI33776
aI1009
aI1010
aI1011
aI33780
aI33781
aI1014
aI32937
aI33784
aI66555
aI33788
aI66557
aI85142
aI1024
aI33793
aI33794
aI1030
aI1031
aI1033
aI1035
aI1040
aI60248
aI1043
aI65710
aI1047
aI1048
aI33817
aI33818
aI1051
aI43870
aI66592
aI1057
aI1058
aI33829
aI66598
aI1064
aI66603
aI1069
aI1070
aI33839
aI66608
aI38408
aI1075
aI1076
aI93022
aI1078
aI1079
aI1080
aI1081
aI66618
aI33851
aI1084
aI33853
aI1086
aI66628
aI32950
aI1095
aI33864
aI1097
aI1098
aI65719
aI1100
aI1101
aI1102
aI66639
aI1104
aI1105
aI1106
aI1107
aI1108
aI33878
aI32953
aI33880
aI33881
aI1116
aI66653
aI66654
aI1119
aI1120
aI66659
aI33892
aI1125
aI66670
aI1135
aI33904
aI33906
aI1140
aI65726
aI66679
aI66681
aI66682
aI1147
aI1148
aI66597
aI66686
aI5653
aI33921
aI33922
aI1155
aI33924
aI5654
aI66694
aI73331
aI66698
aI1163
aI66700
aI1165
aI33935
aI61142
aI33938
aI1171
aI1172
aI1173
aI1174
aI1175
aI33944
aI65732
aI6810
aI43887
aI33948
aI33949
aI33950
aI1183
aI1184
aI33953
aI1186
aI33955
aI1189
aI1190
aI1191
aI1192
aI1194
aI65735
aI33964
aI33966
aI71197
aI1200
aI1201
aI1202
aI1203
aI86643
aI1205
aI1207
aI1209
aI33980
aI1213
aI66750
aI33983
aI1217
aI1219
aI1220
aI66130
aI1222
aI33992
aI1226
aI33995
aI1228
aI1229
aI33999
aI34000
aI1233
aI1234
aI66771
aI1236
aI65742
aI1238
aI34008
aI1241
aI1242
aI1243
aI1244
aI1245
aI1246
aI1248
aI34017
aI34018
aI60283
aI1252
aI1253
aI1254
aI66791
aI1256
aI1257
aI66794
aI1259
aI1260
aI1261
aI34030
aI34032
aI1265
aI211
aI34037
aI34039
aI1272
aI34041
aI1275
aI1277
aI1278
aI1279
aI1281
aI1282
aI1284
aI66821
aI1286
aI1287
aI66824
aI34057
aI66826
aI1291
aI60055
aI34063
aI1296
aI1298
aI66835
aI34068
aI1301
aI1304
aI93060
aI1306
aI34075
aI1312
aI66849
aI34082
aI34083
aI1316
aI66853
aI1318
aI1320
aI34089
aI34090
aI1323
aI1324
aI1327
aI32778
aI1331
aI1333
aI1335
aI1336
aI22068
aI34106
aI72059
aI1340
aI34110
aI1344
aI66882
aI1347
aI1348
aI34117
aI93882
aI1352
aI1353
aI66891
aI1357
aI1358
aI43917
aI66896
aI66898
aI34131
aI1365
aI1367
aI87517
aI1369
aI1370
aI1373
aI1375
aI34145
aI1378
aI1379
aI1380
aI34149
aI66918
aI66920
aI34154
aI66923
aI1388
aI66925
aI66926
aI1391
aI1392
aI1393
aI34163
aI64247
aI66933
aI1399
aI1401
aI34170
aI66942
aI94975
aI34177
aI1410
aI34179
aI1412
aI1413
aI1416
aI1417
aI1418
aI1419
aI74244
aI66959
aI1424
aI1425
aI1428
aI1429
aI88429
aI66969
aI1434
aI1435
aI34204
aI1438
aI34207
aI1442
aI1443
aI34212
aI66981
aI1446
aI1448
aI34217
aI34219
aI66988
aI1453
aI1454
aI93085
aI1457
aI34226
aI33011
aI34228
aI34229
aI1462
aI1464
aI1465
aI1467
aI67004
aI87626
aI1471
aI67008
aI34242
aI67011
aI1476
aI84066
aI97511
aI91664
aI1481
aI1482
aI1483
aI1484
aI34253
aI1487
aI60323
aI1492
aI94501
aI34264
aI34266
aI34268
aI34269
aI1502
aI34271
aI1508
aI34278
aI1511
aI1512
aI1513
aI1514
aI34283
aI34284
aI1517
aI65789
aI1520
aI1523
aI67061
aI1526
aI34295
aI1529
aI1531
aI67068
aI1534
aI38485
aI1536
aI1537
aI67074
aI1539
aI71639
aI67078
aI67081
aI1546
aI1547
aI1548
aI1549
aI1550
aI1552
aI67091
aI1556
aI1557
aI34326
aI1560
aI34330
aI34332
aI1565
aI1567
aI1568
aI1570
aI1571
aI1572
aI56791
aI67111
aI34344
aI1577
aI1579
aI1580
aI34352
aI1585
aI67123
aI1588
aI34360
aI67130
aI34363
aI1596
aI1600
aI67137
aI1604
aI1605
aI1607
aI1608
aI1609
aI1611
aI1612
aI1614
aI67153
aI1618
aI1622
aI1624
aI1625
aI84900
aI65807
aI1628
aI1629
aI34398
aI1631
aI1632
aI1635
aI1637
aI1638
aI1639
aI67176
aI34409
aI34410
aI54887
aI82194
aI67184
aI67185
aI34418
aI65811
aI34420
aI38505
aI67192
aI87840
aI67194
aI32789
aI34430
aI67199
aI34432
aI67201
aI77690
aI34439
aI38508
aI34442
aI34444
aI34445
aI87661
aI34448
aI34449
aI34453
aI34454
aI34457
aI34458
aI67227
aI67232
aI87664
aI67234
aI93126
aI34470
aI22129
aI85641
aI67242
aI34475
aI67246
aI34480
aI34481
aI67250
aI67253
aI34487
aI67257
aI67258
aI97243
aI93130
aI67263
aI67264
aI67265
aI67266
aI67267
aI34501
aI34502
aI65825
aI34507
aI82210
aI93848
aI34511
aI76437
aI34514
aI34515
aI67286
aI34519
aI34521
aI34524
aI67293
aI34526
aI34527
aI34529
aI34531
aI34534
aI87676
aI67306
aI60370
aI67310
aI5757
aI34544
aI34545
aI38526
aI67322
aI34556
aI67325
aI67326
aI93070
aI34561
aI67331
aI34564
aI67334
aI38529
aI34569
aI34571
aI34573
aI67343
aI33070
aI34585
aI34587
aI34590
aI67360
aI34593
aI34594
aI34595
aI34596
aI34599
aI67369
aI67370
aI34603
aI34604
aI34605
aI34606
aI67375
aI93150
aI67382
aI67384
aI34618
aI67390
aI67391
aI34626
aI34627
aI43707
aI34630
aI67400
aI34634
aI34635
aI84247
aI67412
aI38543
aI34652
aI34656
aI54928
aI33083
aI67428
aI94319
aI34664
aI67434
aI34671
aI67440
aI85993
aI67444
aI34678
aI67447
aI67448
aI62240
aI67451
aI34684
aI67456
aI43709
aI67458
aI34691
aI34694
aI67464
aI72322
aI33090
aI90628
aI67471
aI67472
aI87704
aI67474
aI34707
aI67476
aI67478
aI70988
aI33092
aI60399
aI67485
aI34718
aI33093
aI93902
aI34725
aI93169
aI34729
aI33095
aI34733
aI34734
aI67503
aI44019
aI67509
aI67511
aI34748
aI67520
aI67521
aI67524
aI27638
aI83205
aI34759
aI34760
aI34761
aI67530
aI34763
aI34764
aI34766
aI34767
aI67536
aI67537
aI67538
aI34771
aI62261
aI67543
aI67545
aI34778
aI65871
aI67551
aI34784
aI34785
aI93179
aI74264
aI34791
aI34796
aI34798
aI93181
aI70991
aI62262
aI93182
aI34806
aI54953
aI67576
aI67579
aI67580
aI34813
aI67582
aI82261
aI60416
aI34818
aI34822
aI67593
aI67594
aI34828
aI34835
aI94791
aI34838
aI67609
aI34843
aI54788
aI93189
aI67617
aI34850
aI34851
aI87740
aI34854
aI34855
aI67624
aI33116
aI34858
aI67629
aI67631
aI71155
aI34866
aI71347
aI67639
aI34872
aI34875
aI34885
aI82273
aI67657
aI34894
aI78632
aI67665
aI65891
aI87598
aI67669
aI67673
aI34906
aI44047
aI34908
aI71354
aI34910
aI34911
aI34912
aI81906
aI34914
aI38587
aI67684
aI65894
aI67687
aI79724
aI65895
aI53555
aI93202
aI67694
aI87741
aI34932
aI54974
aI34935
aI67704
aI67706
aI34939
aI67709
aI65540
aI34943
aI87744
aI92542
aI70949
aI67720
aI34953
aI93207
aI34957
aI44314
aI67728
aI60440
aI34965
aI67735
aI67737
aI74270
aI34972
aI34974
aI85995
aI368
aI34978
aI54982
aI67753
aI67755
aI34988
aI34989
aI34990
aI34992
aI86507
aI34997
aI34998
aI35001
aI87754
aI35006
aI67776
aI35009
aI35010
aI35012
aI65910
aI35014
aI67783
aI35016
aI67785
aI35018
aI35019
aI67788
aI35021
aI35022
aI87757
aI67725
aI35025
aI35032
aI35033
aI96252
aI67809
aI35045
aI35046
aI67815
aI35053
aI35056
aI35057
aI35058
aI67831
aI35065
aI35071
aI33152
aI67842
aI35078
aI67847
aI67849
aI54999
aI93837
aI35086
aI55000
aI35091
aI35092
aI67861
aI35095
aI35096
aI67865
aI67867
aI67868
aI35101
aI35103
aI67872
aI44080
aI35107
aI65926
aI35110
aI35114
aI35115
aI67885
aI35119
aI35124
aI35126
aI67895
aI35129
aI67898
aI35132
aI65930
aI60682
aI35136
aI67905
aI93916
aI35143
aI67912
aI65932
aI35147
aI35148
aI33165
aI35154
aI35157
aI67926
aI67928
aI35161
aI35162
aI33167
aI67932
aI28449
aI93917
aI35171
aI35174
aI35178
aI67947
aI67948
aI35184
aI87784
aI39361
aI35193
aI44817
aI35198
aI67967
aI35200
aI67969
aI35202
aI35209
aI35210
aI67980
aI35214
aI35215
aI67985
aI67987
aI35222
aI67993
aI44818
aI55023
aI35229
aI93919
aI79786
aI35233
aI68004
aI35237
aI68007
aI68009
aI68012
aI68014
aI68015
aI68017
aI68018
aI68021
aI78644
aI35257
aI65702
aI60095
aI35264
aI33184
aI35267
aI35268
aI35269
aI68038
aI71416
aI35282
aI90798
aI35287
aI68057
aI71418
aI68067
aI35301
aI35306
aI68075
aI68080
aI68082
aI35315
aI35317
aI35318
aI68087
aI11091
aI35322
aI68092
aI68093
aI68095
aI68098
aI35333
aI68102
aI35337
aI68107
aI68111
aI35344
aI35345
aI35346
aI71427
aI65966
aI35350
aI68121
aI82351
aI35356
aI68126
aI35360
aI35361
aI35362
aI68131
aI35365
aI68134
aI35367
aI33202
aI35375
aI35376
aI35377
aI68146
aI35379
aI35380
aI68150
aI87817
aI35384
aI68155
aI68157
aI71435
aI94945
aI68167
aI68168
aI68169
aI35406
aI69920
aI2641
aI2642
aI2643
aI2644
aI2645
aI65977
aI2648
aI2649
aI2650
aI2651
aI2652
aI33210
aI35423
aI2656
aI71440
aI2660
aI2661
aI2662
aI2665
aI35434
aI80106
aI68209
aI35442
aI68212
aI35445
aI2678
aI2679
aI68217
aI68218
aI35453
aI35454
aI2688
aI2689
aI35458
aI2692
aI68229
aI35462
aI68231
aI35465
aI2698
aI2700
aI17320
aI68241
aI2706
aI68244
aI2709
aI35479
aI35480
aI35482
aI2715
aI2716
aI38682
aI35486
aI2719
aI35488
aI55067
aI35492
aI68261
aI35494
aI2727
aI68264
aI68265
aI68270
aI35503
aI2736
aI35505
aI2738
aI2740
aI55070
aI2743
aI2744
aI2745
aI2746
aI2747
aI2748
aI35517
aI2750
aI2752
aI38688
aI35522
aI2755
aI2757
aI38689
aI87721
aI65996
aI44151
aI2764
aI2765
aI2768
aI68305
aI2770
aI35540
aI2773
aI2774
aI2775
aI35545
aI2779
aI35550
aI55077
aI2784
aI2786
aI68323
aI35556
aI2789
aI35558
aI2791
aI2794
aI35563
aI35565
aI2799
aI2800
aI2802
aI35572
aI2806
aI2807
aI35577
aI2810
aI35579
aI38283
aI38698
aI35582
aI33237
aI68352
aI68353
aI2819
aI68356
aI35589
aI2822
aI2823
aI87852
aI2826
aI2827
aI68365
aI35602
aI35605
aI35611
aI68383
aI35618
aI66082
aI35620
aI68389
aI68390
aI33244
aI68396
aI33245
aI68402
aI68403
aI68405
aI68408
aI68409
aI96115
aI35647
aI68416
aI68837
aI35654
aI35656
aI66655
aI55095
aI35661
aI35662
aI38712
aI68435
aI68437
aI35670
aI35671
aI35673
aI35674
aI60559
aI35682
aI35683
aI55100
aI68458
aI68459
aI68465
aI35699
aI68468
aI68472
aI87871
aI68478
aI35713
aI68482
aI35715
aI35718
aI66028
aI87874
aI35726
aI35727
aI35729
aI35730
aI87875
aI35738
aI35739
aI35742
aI68511
aI68512
aI71527
aI35748
aI35751
aI65567
aI44188
aI35754
aI35755
aI68526
aI47018
aI35761
aI35764
aI238
aI68535
aI68536
aI35773
aI77926
aI33269
aI35776
aI35777
aI22347
aI83026
aI68549
aI35782
aI35783
aI38732
aI78799
aI68556
aI35790
aI35793
aI35794
aI55118
aI68567
aI35800
aI93348
aI17559
aI35805
aI35807
aI41564
aI55120
aI68578
aI43665
aI68580
aI35815
aI68587
aI35820
aI68592
aI35827
aI35830
aI68599
aI92111
aI87892
aI35834
aI44202
aI38741
aI68608
aI78783
aI68610
aI60587
aI68618
aI54659
aI68622
aI68625
aI35861
aI87897
aI68632
aI35865
aI35869
aI68638
aI35871
aI35873
aI68642
aI35875
aI35878
aI35879
aI68649
aI35882
aI82439
aI35885
aI11015
aI68657
aI68658
aI35891
aI35893
aI35896
aI35897
aI68666
aI35899
aI35900
aI33290
aI35902
aI35906
aI68676
aI97215
aI68678
aI38753
aI35913
aI35915
aI35916
aI68685
aI35918
aI68687
aI68689
aI35922
aI68691
aI68693
aI68694
aI105
aI35929
aI68698
aI44218
aI35935
aI68705
aI35938
aI68708
aI87910
aI90291
aI35947
aI35949
aI35954
aI68725
aI68726
aI35959
aI68728
aI35965
aI69853
aI35968
aI68738
aI55147
aI35974
aI71532
aI35979
aI35980
aI44226
aI71533
aI67757
aI55150
aI68758
aI68759
aI35992
aI35994
aI35995
aI35999
aI68768
aI96127
aI68772
aI36009
aI68778
aI93945
aI85129
aI71538
aI36014
aI33309
aI68784
aI36017
aI71539
aI68788
aI66078
aI36023
aI68793
aI68795
aI60618
aI68799
aI36033
aI36035
aI68805
aI68806
aI93946
aI68811
aI36044
aI33314
aI44237
aI68816
aI68818
aI68819
aI36054
aI68826
aI47028
aI36063
aI36066
aI36069
aI36070
aI44241
aI68842
aI67760
aI33320
aI60628
aI55167
aI68861
aI27861
aI53576
aI49707
aI92331
aI68870
aI68874
aI68877
aI32845
aI66093
aI36112
aI36113
aI97507
aI36115
aI68885
aI36118
aI44249
aI68888
aI36123
aI68892
aI77474
aI93949
aI55174
aI68902
aI36135
aI66671
aI60637
aI36144
aI92986
aI66099
aI93406
aI55177
aI36152
aI36153
aI68922
aI68923
aI68928
aI44256
aI36162
aI42358
aI68933
aI36166
aI36168
aI68937
aI24118
aI75310
aI36179
aI68949
aI36182
aI36185
aI68958
aI68959
aI68960
aI33339
aI68965
aI36198
aI36199
aI36201
aI68971
aI68972
aI38802
aI68974
aI36207
aI68976
aI68978
aI36212
aI37213
aI36216
aI68985
aI36218
aI33343
aI36220
aI93418
aI36222
aI92861
aI36228
aI36230
aI36231
aI69003
aI36238
aI69007
aI36243
aI36245
aI69014
aI69015
aI68857
aI69020
aI36254
aI93424
aI36258
aI69027
aI72129
aI33350
aI69030
aI90680
aI69032
aI69033
aI36266
aI69035
aI38412
aI36271
aI36275
aI69045
aI61220
aI69048
aI43762
aI69055
aI33355
aI90681
aI69063
aI66124
aI69069
aI71587
aI85374
aI69081
aI33359
aI36317
aI69086
aI38821
aI36320
aI69090
aI44283
aI69094
aI36327
aI80862
aI60668
aI36330
aI71591
aI69100
aI69101
aI87409
aI36336
aI36339
aI78148
aI36347
aI69123
aI82518
aI69126
aI69129
aI54676
aI36363
aI69132
aI69134
aI36368
aI69139
aI66137
aI69145
aI38831
aI36381
aI65588
aI69152
aI71600
aI36388
aI36390
aI69162
aI69164
aI36398
aI69169
aI93958
aI60133
aI88405
aI92867
aI67019
aI69180
aI36413
aI69183
aI88503
aI66145
aI36428
aI66146
aI33379
aI36436
aI69206
aI71609
aI69208
aI69209
aI74319
aI36443
aI36444
aI69216
aI87995
aI66150
aI36454
aI69223
aI36457
aI93459
aI69237
aI69241
aI36475
aI93461
aI36480
aI36482
aI33387
aI36484
aI93462
aI38849
aI33388
aI93961
aI69261
aI19645
aI36500
aI66158
aI36505
aI71146
aI69276
aI36509
aI36513
aI71166
aI38854
aI69286
aI36519
aI69290
aI38855
aI69292
aI33394
aI69295
aI69297
aI63310
aI93425
aI60702
aI69303
aI69304
aI36538
aI88010
aI36542
aI81224
aI69313
aI69320
aI69321
aI36554
aI33951
aI69328
aI90699
aI69331
aI90690
aI69334
aI36567
aI36569
aI36572
aI36575
aI69345
aI66171
aI96111
aI36585
aI92873
aI69355
aI69359
aI36595
aI36597
aI93481
aI69368
aI36603
aI69373
aI3838
aI3839
aI36608
aI3841
aI3845
aI3846
aI3847
aI3848
aI3849
aI36619
aI36620
aI36621
aI3854
aI3855
aI3857
aI69394
aI3859
aI3860
aI3862
aI36631
aI3865
aI92771
aI69404
aI3869
aI36638
aI3871
aI93488
aI85237
aI3877
aI3878
aI3879
aI61565
aI3881
aI3883
aI3885
aI79023
aI36656
aI36657
aI3890
aI3891
aI38878
aI33417
aI36665
aI3900
aI3902
aI3903
aI69440
aI3905
aI3906
aI69443
aI3908
aI3911
aI69448
aI82572
aI3914
aI3915
aI3916
aI88034
aI36686
aI69455
aI69456
aI3921
aI3923
aI69460
aI36693
aI3926
aI3927
aI78692
aI36698
aI3931
aI3934
aI3935
aI69472
aI3939
aI3940
aI88038
aI3943
aI3945
aI3947
aI3948
aI3949
aI3953
aI88513
aI69492
aI60734
aI36726
aI3959
aI36728
aI82580
aI3962
aI69500
aI3965
aI3966
aI36735
aI69504
aI3969
aI3971
aI3972
aI36741
aI74329
aI36743
aI36744
aI94954
aI33431
aI69518
aI3983
aI3986
aI36756
aI36757
aI3990
aI3993
aI36762
aI69531
aI3996
aI69533
aI3998
aI3999
aI71664
aI69543
aI4008
aI60743
aI4012
aI69550
aI4015
aI4016
aI4018
aI4019
aI64598
aI4021
aI27412
aI97573
aI94671
aI4028
aI36798
aI4031
aI36802
aI36803
aI4036
aI69574
aI36807
aI4041
aI4043
aI4045
aI4046
aI4049
aI4050
aI4051
aI36820
aI36822
aI4055
aI4059
aI36830
aI4063
aI4064
aI36834
aI69603
aI69604
aI36837
aI4070
aI60753
aI69608
aI36841
aI82599
aI4076
aI4078
aI4079
aI4080
aI69618
aI69619
aI68986
aI69622
aI36855
aI4089
aI4091
aI4092
aI33450
aI69630
aI93525
aI4096
aI4097
aI36866
aI69635
aI36870
aI88065
aI69640
aI4105
aI36875
aI4108
aI93528
aI69650
aI69654
aI60761
aI4120
aI79461
aI36892
aI4125
aI65605
aI36895
aI4128
aI36897
aI4130
aI44379
aI4132
aI4133
aI69672
aI37236
aI78699
aI4140
aI66226
aI4142
aI69679
aI4145
aI4146
aI4147
aI4148
aI69686
aI4151
aI33460
aI4157
aI4158
aI69697
aI4162
aI36931
aI36933
aI69702
aI4171
aI36943
aI36946
aI36947
aI4180
aI4181
aI36950
aI69719
aI4184
aI4185
aI4186
aI4187
aI4188
aI4189
aI61632
aI69730
aI4196
aI4197
aI36966
aI4203
aI71698
aI4207
aI4209
aI4210
aI57970
aI4214
aI44393
aI4216
aI4217
aI4219
aI36988
aI4222
aI69760
aI36993
aI4226
aI4227
aI69765
aI4231
aI4234
aI69771
aI4237
aI37006
aI4240
aI37010
aI4246
aI37015
aI37016
aI4249
aI37018
aI69860
aI66245
aI4256
aI69793
aI69796
aI37029
aI93553
aI4268
aI4269
aI69806
aI32876
aI37042
aI4275
aI4277
aI33481
aI37048
aI44404
aI4284
aI4285
aI37054
aI4287
aI69824
aI69825
aI69826
aI33483
aI4293
aI4294
aI37065
aI4298
aI69835
aI4302
aI33485
aI4304
aI69841
aI4307
aI44409
aI4313
aI4314
aI4315
aI4317
aI4318
aI37087
aI37089
aI4324
aI69861
aI37094
aI33489
aI4328
aI4332
aI88823
aI4334
aI4335
aI69873
aI37107
aI4340
aI37109
aI4342
aI75424
aI4346
aI44415
aI4351
aI93568
aI4354
aI4355
aI69892
aI33494
aI69894
aI4360
aI37130
aI49879
aI69902
aI37136
aI37137
aI47064
aI4373
aI69910
aI4376
aI93572
aI69915
aI69918
aI4384
aI33971
aI69926
aI37159
aI37161
aI4394
aI4395
aI69932
aI4397
aI33501
aI4401
aI69938
aI4403
aI69940
aI4405
aI87319
aI4409
aI37179
aI4412
aI37183
aI4416
aI37186
aI37188
aI66706
aI4423
aI69960
aI69964
aI4429
aI69966
aI93581
aI69968
aI69969
aI69970
aI33507
aI69972
aI4437
aI4438
aI37208
aI82660
aI4442
aI69981
aI37214
aI4448
aI69986
aI69987
aI4452
aI4453
aI4455
aI4457
aI4458
aI33511
aI4461
aI4462
aI70001
aI4466
aI4467
aI4468
aI4469
aI66281
aI4472
aI4473
aI4474
aI4475
aI60161
aI70014
aI4479
aI4481
aI37251
aI4484
aI4485
aI37254
aI37255
aI4488
aI33516
aI37258
aI4491
aI4493
aI37262
aI37264
aI4497
aI4498
aI4499
aI37270
aI4503
aI37272
aI4506
aI4507
aI4509
aI4510
aI37280
aI4513
aI4514
aI49251
aI37284
aI4517
aI4519
aI70056
aI37289
aI70058
aI4523
aI4524
aI37293
aI37294
aI37296
aI4529
aI4530
aI49907
aI4533
aI37303
aI4536
aI66292
aI67801
aI4539
aI70076
aI4541
aI37312
aI4545
aI84677
aI4549
aI4550
aI4552
aI4553
aI4554
aI4555
aI4556
aI37325
aI37326
aI37327
aI4560
aI33528
aI93603
aI37332
aI38990
aI88382
aI4567
aI37336
aI37337
aI4570
aI38991
aI4572
aI37343
aI70112
aI4577
aI4579
aI37348
aI93606
aI70121
aI87443
aI37357
aI70127
aI87448
aI37363
aI70132
aI37368
aI37376
aI37380
aI88150
aI37382
aI54710
aI37384
aI37385
aI70154
aI71767
aI70156
aI44461
aI70160
aI37393
aI37394
aI37398
aI39001
aI96638
aI65622
aI70177
aI6235
aI94522
aI37413
aI37416
aI70187
aI70188
aI93618
aI37422
aI88157
aI88998
aI37432
aI37434
aI37436
aI73261
aI11701
aI70208
aI37441
aI37443
aI60854
aI83611
aI74882
aI69988
aI37450
aI93623
aI70220
aI93993
aI37454
aI70225
aI37458
aI37460
aI37461
aI37464
aI70233
aI70234
aI37469
aI96286
aI69863
aI70241
aI70243
aI71782
aI37479
aI37482
aI88167
aI70252
aI37485
aI37489
aI33555
aI70260
aI37494
aI37498
aI37501
aI44480
aI37506
aI39019
aI44894
aI37512
aI88172
aI70283
aI37516
aI37518
aI37521
aI37523
aI71790
aI81993
aI37527
aI37528
aI37531
aI37534
aI37537
aI37538
aI37539
aI37541
aI37543
aI37545
aI60871
aI66333
aI37554
aI70323
aI56898
aI70325
aI44489
aI37561
aI70330
aI66335
aI70332
aI37566
aI37567
aI37568
aI37573
aI37577
aI45859
aI70347
aI37580
aI70349
aI70350
aI70354
aI37587
aI70358
aI37592
aI37596
aI38876
aI37604
aI70373
aI37608
aI70377
aI37614
aI37618
aI37619
aI37620
aI97272
aI37623
aI70395
aI82730
aI86361
aI37632
aI70402
aI37635
aI70404
aI70407
aI70408
aI37643
aI70413
aI37649
aI37650
aI79815
aI37261
aI70425
aI37658
aI66351
aI37662
aI37663
aI37664
aI33584
aI33988
aI71814
aI37675
aI70444
aI75320
aI70446
aI60893
aI37682
aI49971
aI90814
aI37686
aI37687
aI33588
aI37690
aI93663
aI39050
aI70462
aI70465
aI70467
aI37702
aI93665
aI37704
aI65632
aI37709
aI70481
aI37716
aI37717
aI49977
aI37723
aI37724
aI70493
aI37728
aI70502
aI71825
aI66364
aI70506
aI70507
aI70510
aI66155
aI39059
aI70519
aI37752
aI39060
aI37757
aI36913
aI37762
aI37764
aI70533
aI33601
aI64543
aI93676
aI70538
aI37771
aI37772
aI37779
aI37781
aI70550
aI70551
aI37784
aI70553
aI70554
aI37787
aI75455
aI70558
aI37791
aI83093
aI70561
aI37794
aI37795
aI94961
aI73273
aI37800
aI70569
aI70570
aI37803
aI37806
aI37807
aI33608
aI70578
aI60915
aI81213
aI37821
aI93685
aI88224
aI92752
aI70596
aI37829
aI70601
aI70605
aI70606
aI70607
aI70609
aI37844
aI70613
aI50361
aI6309
aI37856
aI50000
aI70630
aI66385
aI37864
aI70634
aI37868
aI37869
aI93693
aI39080
aI70644
aI92916
aI70647
aI37880
aI37881
aI37882
aI93695
aI61355
aI82005
aI70658
aI70659
aI37892
aI37893
aI70662
aI93697
aI37898
aI66391
aI70668
aI82776
aI37907
aI70678
aI37911
aI60932
aI37914
aI65639
aI50010
aI70688
aI38361
aI37923
aI70698
aI37932
aI43817
aI70703
aI37939
aI50014
aI32906
aI70711
aI37944
aI65640
aI79776
aI37947
aI37950
aI37951
aI70720
aI70721
aI70723
aI37957
aI50017
aI70729
aI37965
aI70737
aI70739
aI32907
aI37973
aI44559
aI37981
aI70751
aI70752
aI37985
aI70754
aI70755
aI65736
aI82790
aI37990
aI50366
aI66408
aI70771
aI88254
aI66409
aI38009
aI38012
aI70785
aI38018
aI50027
aI38020
aI38021
aI38022
aI38024
aI70793
aI70794
aI70795
aI38028
aI33645
aI38034
aI38035
aI93079
aI70810
aI33647
aI38046
aI38047
aI38053
aI38057
aI88263
aI50034
aI38062
aI70831
aI52409
aI70834
aI38067
aI70837
aI88265
aI70840
aI33652
aI97136
aI38075
aI38076
aI70845
aI96113
aI70849
aI70850
aI38084
aI85285
aI21873
aI38089
aI70858
aI41640
aI38092
aI77505
aI38097
aI70866
aI73577
aI38367
aI50227
aI38109
aI70878
aI70879
aI70883
aI44582
aI88273
aI60967
aI70893
aI70894
aI70896
aI38129
aI71891
aI33662
aI38135
aI71892
aI38138
aI44586
aI39125
aI70912
aI33665
aI70920
aI70923
aI70928
aI70932
aI70933
aI38166
aI39098
aI38171
aI38174
aI38175
aI86671
aI70946
aI38179
aI38180
aI38181
aI58010
aI93745
aI71900
aI38186
aI70956
aI70958
aI70961
aI70962
aI96200
aI38198
aI38204
aI70973
aI92927
aI70977
aI38210
aI38211
aI83107
aI70982
aI70986
aI38220
aI38223
aI38225
aI38227
aI82830
aI77652
aI38237
aI71007
aI71010
aI71012
aI82833
aI71017
aI38250
aI71019
aI72197
aI38253
aI71022
aI71030
aI38263
aI50068
aI71034
aI93759
aI38268
aI38269
aI38270
aI71040
aI71042
aI88299
aI71045
aI93761
aI33687
aI38284
aI38286
aI38291
aI33689
aI38296
aI93764
aI88303
aI33690
aI38302
aI38305
aI923
aI71076
aI71079
aI97295
aI33692
aI38315
aI38316
aI925
aI38328
aI80052
aI33695
aI38332
aI71105
aI38338
aI39158
aI71111
aI79838
aI38346
aI71115
aI38348
aI44922
aI71118
aI79441
aI5584
aI5585
aI38354
aI5591
aI5592
aI5593
aI5595
aI5596
aI5597
aI56925
aI5599
aI5600
aI5601
aI74992
aI38374
aI5608
aI5609
aI38378
aI5611
aI5613
aI5614
aI5615
aI93995
aI5619
aI5620
aI5621
aI5622
aI5623
aI5625
aI5628
aI38397
aI5630
aI5631
aI5632
aI5634
aI5635
aI38405
aI5640
aI71178
aI71179
aI5644
aI43833
aI68929
aI5647
aI81452
aI71185
aI71939
aI38421
aI71190
aI5658
aI44634
aI71941
aI71200
aI5665
aI5668
aI38437
aI5671
aI38441
aI5674
aI5676
aI5677
aI5678
aI93789
aI63541
aI38450
aI71219
aI61022
aI71223
aI5688
aI5689
aI38458
aI61023
aI5692
aI82869
aI79842
aI5698
aI5699
aI5701
aI5702
aI44641
aI38472
aI5705
aI71243
aI38476
aI71245
aI5711
aI5712
aI82872
aI5714
aI5715
aI5716
aI5717
aI5718
aI71256
aI71258
aI5723
aI5724
aI5725
aI71263
aI39184
aI71266
aI71269
aI5735
aI5737
aI71275
aI5740
aI5741
aI5742
aI5744
aI5745
aI38514
aI71283
aI38517
aI38519
aI71289
aI5755
aI38524
aI38525
aI5758
aI88341
aI5760
aI5761
aI5762
aI5763
aI71301
aI33729
aI71305
aI5770
aI5771
aI38540
aI61037
aI5776
aI38545
aI38546
aI38547
aI38548
aI38549
aI38551
aI38554
aI5790
aI82885
aI97138
aI71330
aI38563
aI5796
aI75481
aI38571
aI38572
aI71341
aI38574
aI5807
aI5809
aI38579
aI71966
aI5815
aI71353
aI38586
aI5819
aI5820
aI38589
aI38590
aI38591
aI5824
aI38594
aI38595
aI5829
aI38598
aI5831
aI38601
aI5836
aI71970
aI5838
aI5839
aI5842
aI5843
aI38612
aI5845
aI5847
aI38618
aI5851
aI71388
aI86394
aI5857
aI38628
aI71974
aI38632
aI71401
aI71404
aI5869
aI38639
aI38640
aI38642
aI71412
aI38645
aI96215
aI38647
aI38648
aI38650
aI71420
aI38653
aI94033
aI38657
aI38659
aI5893
aI5894
aI44673
aI74393
aI5897
aI38666
aI5899
aI5900
aI50449
aI5904
aI82904
aI38674
aI87487
aI5912
aI5913
aI5914
aI38687
aI5920
aI5921
aI5922
aI38691
aI38692
aI38694
aI5927
aI5929
aI5930
aI71986
aI38702
aI5935
aI71473
aI71474
aI5939
aI38709
aI38710
aI5943
aI5944
aI5945
aI38714
aI71487
aI5955
aI71492
aI5958
aI5959
aI5962
aI5963
aI5964
aI5965
aI5967
aI6456
aI38738
aI33763
aI5973
aI5975
aI71512
aI76200
aI5981
aI5983
aI38752
aI5985
aI5986
aI5988
aI38759
aI38760
aI5995
aI38764
aI5997
aI38767
aI38769
aI38770
aI6003
aI6005
aI38777
aI6013
aI6017
aI6019
aI38788
aI6021
aI6022
aI6023
aI6024
aI6025
aI6026
aI96220
aI6029
aI6030
aI38799
aI71568
aI6033
aI6034
aI6036
aI6037
aI61081
aI38808
aI71578
aI6043
aI38812
aI71582
aI6049
aI38819
aI71588
aI6053
aI6055
aI71593
aI6058
aI38827
aI38828
aI38829
aI6063
aI6064
aI6066
aI6067
aI6069
aI90167
aI6071
aI6073
aI6074
aI6075
aI38844
aI6078
aI38848
aI6081
aI6082
aI6083
aI6084
aI6085
aI6086
aI6087
aI6088
aI6089
aI66551
aI6092
aI6093
aI6096
aI38865
aI6099
aI6103
aI66762
aI6107
aI6108
aI6109
aI6110
aI71647
aI6113
aI6114
aI38883
aI38884
aI6117
aI6118
aI6481
aI6121
aI38890
aI6123
aI82941
aI6128
aI67854
aI6132
aI71670
aI77481
aI71672
aI38905
aI6139
aI38908
aI77482
aI72021
aI6144
aI33792
aI38917
aI6151
aI90425
aI38924
aI71694
aI38930
aI38933
aI71702
aI39257
aI82040
aI71708
aI38941
aI6174
aI38943
aI71712
aI71713
aI6179
aI78767
aI38950
aI6185
aI6190
aI38959
aI6192
aI17416
aI6194
aI71731
aI6196
aI6198
aI6199
aI71736
aI6202
aI38972
aI38396
aI6206
aI38975
aI6208
aI6209
aI6210
aI6211
aI38980
aI93878
aI71750
aI6215
aI6216
aI75121
aI6221
aI6222
aI6223
aI6225
aI71763
aI71764
aI71765
aI71766
aI38999
aI6232
aI6233
aI39003
aI71773
aI39006
aI6239
aI6240
aI65727
aI71779
aI39270
aI39014
aI39017
aI6251
aI61799
aI6253
aI39022
aI6255
aI6257
aI6258
aI6259
aI71796
aI44734
aI39032
aI71801
aI6266
aI39037
aI87499
aI6271
aI6272
aI6273
aI6275
aI39044
aI39045
aI6278
aI6279
aI6280
aI6282
aI71819
aI39052
aI77506
aI39055
aI6289
aI39058
aI6291
aI6292
aI71829
aI39062
aI66585
aI6296
aI39066
aI6299
aI71836
aI6301
aI6302
aI93893
aI71843
aI6308
aI39077
aI6310
aI6312
aI6313
aI6315
aI83136
aI39085
aI6318
aI6319
aI39088
aI39089
aI6322
aI63496
aI39095
aI39284
aI6330
aI6332
aI6333
aI6334
aI6335
aI43856
aI71873
aI71880
aI6346
aI92841
aI6348
aI71885
aI88440
aI6355
aI39124
aI6357
aI6359
aI6364
aI39133
aI6366
aI6367
aI39136
aI39139
aI68783
aI71911
aI92775
aI6377
aI39147
aI39293
aI39153
aI6388
aI39157
aI6390
aI39159
aI6393
aI6394
aI6397
aI6398
aI6399
aI72493
aI71937
aI39171
aI6405
aI6409
aI71947
aI6413
aI6414
aI6416
aI6417
aI6418
aI72067
aI39188
aI6421
aI39194
aI39195
aI93914
aI67864
aI71968
aI41677
aI6436
aI39205
aI39206
aI48224
aI88455
aI6444
aI82994
aI71982
aI39215
aI6448
aI6450
aI6451
aI93918
aI39222
aI6455
aI39224
aI39227
aI39229
aI6462
aI39233
aI72002
aI6468
aI6470
aI6471
aI72008
aI6473
aI72010
aI6475
aI72012
aI6478
aI96235
aI6480
aI33848
aI6482
aI72020
aI6485
aI39256
aI6489
aI6491
aI6492
aI39261
aI6494
aI6495
aI6497
aI6498
aI6501
aI6502
aI39271
aI39272
aI6505
aI77543
aI6508
aI6509
aI6511
aI6512
aI93928
aI6514
aI72051
aI6516
aI66622
aI6518
aI81930
aI6523
aI6524
aI6525
aI72063
aI65685
aI61163
aI72068
aI88470
aI6534
aI39305
aI72074
aI87342
aI72077
aI6542
aI70050
aI85151
aI77688
aI72083
aI39320
aI33860
aI72090
aI6556
aI39325
aI66629
aI39329
aI39332
aI39334
aI77553
aI50247
aI80132
aI39342
aI50248
aI6580
aI78561
aI39350
aI66633
aI87908
aI6587
aI6588
aI6589
aI79041
aI6593
aI39363
aI85179
aI39367
aI83020
aI77559
aI72141
aI33869
aI72146
aI6611
aI39381
aI72151
aI72152
aI6617
aI6618
aI6619
aI39388
aI6621
aI6623
aI66640
aI6626
aI39395
aI6631
aI39400
aI39401
aI6635
aI6636
aI6637
aI39407
aI67039
aI6641
aI33875
aI6644
aI6645
aI65689
aI6650
aI72187
aI39420
aI72189
aI6655
aI6657
aI6659
aI6660
aI6661
aI39430
aI6665
aI39434
aI70749
aI39437
aI6670
aI6674
aI72211
aI72213
aI6678
aI93956
aI6683
aI6684
aI83034
aI6686
aI6687
aI6688
aI39457
aI6690
aI50267
aI39461
aI6695
aI6696
aI39465
aI6698
aI39468
aI67873
aI72238
aI39472
aI6705
aI6707
aI6708
aI72245
aI39478
aI6711
aI39480
aI75078
aI6715
aI94754
aI72254
aI39487
aI39490
aI6723
aI39494
aI39496
aI39497
aI6730
aI72119
aI84241
aI6733
aI6734
aI77581
aI6737
aI6738
aI6739
aI6742
aI6743
aI72280
aI6745
aI72282
aI39515
aI6748
aI33893
aI39520
aI93968
aI39355
aI6756
aI6758
aI39527
aI72296
aI6762
aI6763
aI6764
aI32959
aI6766
aI72304
aI6770
aI6771
aI39541
aI39542
aI6777
aI39548
aI39549
aI71281
aI6785
aI6786
aI6787
aI6789
aI6791
aI50284
aI6795
aI72333
aI39567
aI72338
aI6803
aI72340
aI72342
aI6807
aI72345
aI39578
aI33903
aI78788
aI39581
aI39582
aI6815
aI6816
aI6817
aI44827
aI6820
aI6821
aI6823
aI45436
aI72135
aI72364
aI6838
aI72375
aI33908
aI6843
aI72381
aI83061
aI6848
aI93984
aI6853
aI6854
aI6855
aI6856
aI6858
aI65696
aI6860
aI6861
aI6862
aI6863
aI6864
aI6865
aI6866
aI6868
aI83065
aI6873
aI72411
aI83066
aI6878
aI6879
aI72417
aI34054
aI85862
aI72420
aI93664
aI6887
aI72425
aI50157
aI83069
aI72432
aI93992
aI6898
aI6899
aI72437
aI6903
aI6904
aI6905
aI66687
aI72445
aI6912
aI6915
aI6920
aI72458
aI6923
aI6924
aI44845
aI6928
aI6930
aI6931
aI6932
aI93998
aI6934
aI6936
aI90391
aI72475
aI72476
aI6942
aI72479
aI72481
aI6946
aI6947
aI6948
aI6949
aI83079
aI6956
aI6957
aI6958
aI6959
aI6962
aI72499
aI72501
aI6966
aI6969
aI6970
aI6972
aI88209
aI6976
aI6977
aI6978
aI66699
aI6980
aI72517
aI6983
aI6984
aI6987
aI58967
aI72162
aI72163
aI93883
aI6998
aI92979
aI50319
aI7004
aI7007
aI7008
aI7010
aI7014
aI7018
aI71157
aI72556
aI7021
aI44970
aI72561
aI7026
aI94071
aI7031
aI72568
aI82629
aI7036
aI7038
aI50325
aI56973
aI72577
aI7042
aI7043
aI7047
aI39404
aI7050
aI7051
aI78796
aI7054
aI7055
aI7056
aI7057
aI7059
aI7061
aI7065
aI6639
aI87824
aI90799
aI72606
aI44869
aI72176
aI7075
aI39409
aI7081
aI72620
aI88562
aI7086
aI92356
aI7090
aI92982
aI7092
aI77735
aI94195
aI7096
aI72634
aI7099
aI7100
aI7102
aI80980
aI66720
aI97347
aI94027
aI7108
aI7112
aI72651
aI7120
aI7121
aI66723
aI7127
aI72664
aI7129
aI43474
aI72668
aI64614
aI7134
aI7135
aI72672
aI71161
aI7142
aI7143
aI77708
aI33959
aI72684
aI7149
aI7151
aI66728
aI72690
aI61267
aI7156
aI7157
aI7158
aI7159
aI7160
aI7161
aI80982
aI72704
aI7169
aI66731
aI53704
aI7173
aI72711
aI66732
aI85347
aI92985
aI72719
aI7184
aI72721
aI7186
aI39427
aI72724
aI72730
aI7195
aI7196
aI7198
aI7199
aI72736
aI17584
aI7204
aI72198
aI7206
aI33969
aI88647
aI72747
aI72750
aI7216
aI7218
aI7219
aI7220
aI7221
aI7222
aI7223
aI47159
aI7226
aI7227
aI7229
aI72766
aI33973
aI7232
aI72769
aI61344
aI7237
aI61281
aI34066
aI33975
aI7245
aI72782
aI72784
aI7249
aI61151
aI7251
aI50458
aI39438
aI33977
aI7257
aI7261
aI7262
aI77669
aI72800
aI7265
aI7266
aI7267
aI7269
aI7270
aI7271
aI7274
aI72210
aI66825
aI72815
aI7280
aI7281
aI64619
aI7285
aI7287
aI7289
aI7290
aI7291
aI7295
aI7296
aI7297
aI7298
aI94059
aI7301
aI7302
aI72839
aI7305
aI7307
aI7308
aI7309
aI7310
aI7312
aI7313
aI7314
aI72258
aI7317
aI72854
aI7319
aI7321
aI7323
aI7324
aI7326
aI7328
aI7329
aI7335
aI72220
aI7338
aI7340
aI7345
aI7346
aI7349
aI72889
aI7354
aI72223
aI27523
aI7357
aI61301
aI78581
aI7366
aI7367
aI7368
aI83148
aI72906
aI72907
aI7372
aI72909
aI72913
aI7379
aI7380
aI7381
aI7382
aI7385
aI7386
aI6814
aI7390
aI7393
aI94075
aI7396
aI7398
aI66769
aI94981
aI7401
aI72938
aI72231
aI7406
aI7407
aI7410
aI7413
aI33874
aI88617
aI72952
aI72953
aI35163
aI7419
aI7421
aI66773
aI58097
aI7425
aI7428
aI7430
aI97393
aI72971
aI7437
aI7438
aI66776
aI7444
aI77700
aI7450
aI41711
aI34012
aI7466
aI7468
aI7469
aI7474
aI39475
aI66782
aI7478
aI73015
aI83197
aI39476
aI7489
aI7493
aI7494
aI73032
aI7497
aI73034
aI73036
aI7502
aI7503
aI79920
aI65958
aI73047
aI34020
aI7515
aI65718
aI73058
aI50406
aI96287
aI79903
aI7529
aI73067
aI40858
aI72819
aI7537
aI44947
aI73076
aI73078
aI73080
aI73081
aI73083
aI83178
aI56990
aI7551
aI82539
aI73089
aI7555
aI97362
aI7557
aI7558
aI7561
aI7562
aI6722
aI73102
aI7567
aI7570
aI7571
aI7573
aI7574
aI73111
aI7576
aI66827
aI7580
aI7582
aI7583
aI7584
aI7585
aI7586
aI38442
aI73124
aI7589
aI71176
aI66801
aI73129
aI7594
aI7595
aI7597
aI7598
aI57880
aI73144
aI40625
aI73147
aI93541
aI97364
aI44960
aI7619
aI73156
aI91726
aI7623
aI7624
aI7625
aI73162
aI7627
aI96815
aI84271
aI73170
aI73171
aI7636
aI7639
aI7641
aI7642
aI68355
aI7644
aI87777
aI7648
aI7650
aI7651
aI7653
aI7659
aI73198
aI66813
aI7664
aI7665
aI73202
aI7672
aI7674
aI70322
aI38445
aI7678
aI88661
aI7683
aI7684
aI39510
aI34049
aI34050
aI7696
aI7698
aI90820
aI7701
aI39513
aI7704
aI7705
aI38446
aI79909
aI7711
aI53722
aI73249
aI88667
aI73252
aI7717
aI68998
aI7719
aI7720
aI7722
aI73259
aI7724
aI7725
aI7726
aI7728
aI7730
aI7731
aI73363
aI7734
aI7735
aI7736
aI63543
aI73276
aI7741
aI7742
aI61365
aI7744
aI7745
aI7746
aI34059
aI7748
aI7751
aI50444
aI7754
aI7758
aI7760
aI73297
aI7763
aI7764
aI7765
aI7767
aI73304
aI88676
aI87549
aI73308
aI7773
aI70091
aI7775
aI7776
aI7779
aI73316
aI96106
aI73318
aI7783
aI77756
aI7786
aI7788
aI7789
aI7790
aI7792
aI7793
aI7795
aI7796
aI7797
aI7798
aI7799
aI7802
aI73340
aI7805
aI7808
aI73350
aI7817
aI73354
aI52644
aI7820
aI40589
aI39533
aI40592
aI73361
aI92791
aI61379
aI7828
aI7831
aI40602
aI7837
aI7840
aI7841
aI73378
aI7844
aI7845
aI73382
aI7847
aI7848
aI82096
aI7854
aI83229
aI7856
aI7857
aI7859
aI40628
aI83230
aI40630
aI7863
aI40633
aI7866
aI73403
aI7868
aI40637
aI66848
aI77771
aI7880
aI7881
aI40651
aI50466
aI7886
aI61389
aI40658
aI7891
aI73428
aI73429
aI7894
aI39545
aI40664
aI40665
aI73434
aI7900
aI7901
aI7902
aI7903
aI7904
aI73441
aI73442
aI73443
aI7908
aI83238
aI90827
aI40679
aI7913
aI40683
aI7916
aI73453
aI7919
aI7920
aI7921
aI40692
aI40694
aI7928
aI7929
aI7930
aI73468
aI40701
aI7934
aI7935
aI7937
aI7938
aI40707
aI73476
aI77782
aI73480
aI7945
aI7946
aI7947
aI7948
aI40717
aI73486
aI7951
aI40720
aI7953
aI73490
aI40723
aI73492
aI7957
aI7959
aI7960
aI7962
aI7963
aI40732
aI73503
aI73504
aI7969
aI7970
aI7971
aI40740
aI7974
aI7975
aI7976
aI7978
aI39559
aI7980
aI73518
aI45021
aI67791
aI73521
aI34099
aI7988
aI40757
aI7992
aI73529
aI7994
aI7995
aI40764
aI7998
aI73535
aI40768
aI8001
aI8005
aI40774
aI45025
aI8009
aI73546
aI83255
aI94178
aI73551
aI73552
aI40785
aI40787
aI73557
aI8022
aI66873
aI8024
aI8026
aI40795
aI40797
aI8030
aI8032
aI93017
aI8034
aI40803
aI73572
aI73573
aI8038
aI8039
aI8040
aI8041
aI8042
aI73580
aI73581
aI40814
aI8047
aI8048
aI8049
aI74468
aI39571
aI8053
aI8055
aI8056
aI8058
aI73595
aI8060
aI8062
aI40831
aI8065
aI8066
aI8067
aI73605
aI40838
aI8072
aI70101
aI8075
aI86468
aI8079
aI8081
aI8083
aI8084
aI8085
aI8086
aI73623
aI8088
aI8089
aI8090
aI8091
aI8092
aI8093
aI8094
aI40863
aI8096
aI8098
aI8099
aI8101
aI8104
aI81888
aI40874
aI40875
aI8108
aI73645
aI8110
aI8112
aI34095
aI73650
aI8115
aI40885
aI50505
aI8122
aI8123
aI50506
aI63514
aI79923
aI8132
aI40901
aI8134
aI39585
aI8138
aI77815
aI8140
aI40909
aI8142
aI34125
aI8146
aI8147
aI8148
aI8149
aI61433
aI8152
aI50511
aI8158
aI83280
aI8162
aI8163
aI8164
aI40935
aI72359
aI73708
aI40941
aI65609
aI8177
aI66899
aI8180
aI73718
aI8183
aI8185
aI40954
aI45055
aI8189
aI8190
aI8191
aI73730
aI40965
aI45057
aI40968
aI73737
aI83287
aI73743
aI8208
aI40978
aI73748
aI8215
aI8216
aI8217
aI8220
aI34138
aI40990
aI8223
aI69450
aI8225
aI73763
aI73764
aI73766
aI8231
aI8234
aI73771
aI8236
aI8238
aI8239
aI41008
aI8242
aI8245
aI41015
aI8249
aI8250
aI34143
aI8252
aI78836
aI70107
aI23221
aI8256
aI8257
aI8258
aI8259
aI8262
aI8264
aI8265
aI41034
aI8269
aI8270
aI8271
aI41040
aI8273
aI8274
aI34147
aI8279
aI50532
aI73819
aI8284
aI77746
aI73824
aI8289
aI41058
aI72379
aI73829
aI8294
aI8295
aI33010
aI73835
aI41068
aI41069
aI41070
aI41071
aI73840
aI8305
aI73842
aI73843
aI73845
aI8313
aI73850
aI73852
aI8318
aI73855
aI8321
aI8324
aI94230
aI73864
aI8331
aI8332
aI41101
aI8335
aI8336
aI41109
aI8343
aI8346
aI41115
aI73885
aI41118
aI88773
aI41120
aI8353
aI61467
aI8357
aI8358
aI34161
aI8360
aI41131
aI8368
aI8369
aI8371
aI73909
aI8374
aI66932
aI76216
aI8379
aI8381
aI41150
aI8384
aI41155
aI41156
aI73927
aI41160
aI41161
aI8394
aI8395
aI41164
aI8397
aI73934
aI88781
aI8400
aI83320
aI8402
aI94243
aI8405
aI73942
aI8407
aI8408
aI41177
aI8410
aI8411
aI8412
aI8413
aI41182
aI41183
aI73952
aI41186
aI8421
aI41193
aI41194
aI41195
aI94179
aI73965
aI41198
aI70113
aI8436
aI41205
aI41207
aI41208
aI41209
aI8442
aI8443
aI73982
aI8448
aI73985
aI8450
aI41222
aI41223
aI8457
aI8459
aI8463
aI8464
aI8465
aI8467
aI8469
aI88793
aI74008
aI34180
aI8475
aI41246
aI8479
aI8480
aI8481
aI41250
aI74019
aI50566
aI8487
aI8489
aI8490
aI41259
aI41260
aI74029
aI8494
aI41263
aI8496
aI66952
aI8498
aI77875
aI8503
aI74041
aI74042
aI8507
aI8508
aI74045
aI8511
aI8513
aI8514
aI34187
aI8516
aI41285
aI8518
aI79936
aI41289
aI8523
aI70116
aI8526
aI8527
aI94264
aI8530
aI8533
aI8534
aI8535
aI74073
aI8539
aI41309
aI8542
aI41311
aI8544
aI34192
aI8546
aI94267
aI8549
aI41320
aI41321
aI74091
aI50578
aI41326
aI77885
aI8560
aI41329
aI8562
aI50579
aI8565
aI8569
aI41340
aI8573
aI74110
aI8575
aI41345
aI63571
aI8579
aI74117
aI8582
aI74119
aI8584
aI8585
aI41354
aI94274
aI41359
aI8592
aI8595
aI41365
aI41366
aI41368
aI8601
aI82121
aI74139
aI41372
aI34202
aI8606
aI74143
aI8609
aI41378
aI8611
aI8612
aI8613
aI8614
aI50588
aI8618
aI8619
aI8620
aI34112
aI8625
aI41394
aI74163
aI8628
aI77897
aI8632
aI8633
aI74173
aI41406
aI8639
aI74177
aI77899
aI74180
aI8645
aI8646
aI8647
aI8648
aI41418
aI41419
aI41420
aI41421
aI8654
aI71589
aI41427
aI8660
aI94286
aI8664
aI41434
aI77903
aI8668
aI41302
aI74206
aI41440
aI8674
aI41443
aI88875
aI34214
aI74217
aI42843
aI67939
aI41452
aI8685
aI41454
aI33023
aI8689
aI8690
aI41459
aI74228
aI8693
aI41462
aI8698
aI41471
aI41472
aI8705
aI74242
aI8708
aI8710
aI8713
aI41482
aI41483
aI41486
aI8719
aI8721
aI8722
aI73396
aI74261
aI41494
aI8727
aI8728
aI41498
aI41499
aI74269
aI8734
aI88837
aI8737
aI8739
aI74276
aI17749
aI50609
aI97168
aI41514
aI41519
aI72456
aI41522
aI74293
aI41526
aI74295
aI8760
aI74297
aI74298
aI8763
aI74300
aI41533
aI17845
aI74304
aI94304
aI60304
aI41541
aI74310
aI8775
aI74312
aI8778
aI74315
aI73398
aI8784
aI41553
aI45155
aI41558
aI8791
aI41560
aI41561
aI8794
aI72463
aI8796
aI8797
aI8798
aI94130
aI8801
aI8802
aI41571
aI41572
aI8805
aI8807
aI41579
aI41580
aI8813
aI74350
aI8817
aI8818
aI41587
aI74356
aI8821
aI8822
aI8823
aI74360
aI41593
aI8826
aI8827
aI96816
aI74367
aI74368
aI41601
aI74371
aI8836
aI84770
aI70327
aI74375
aI8840
aI74377
aI74378
aI8843
aI41613
aI41616
aI8849
aI41618
aI8851
aI74388
aI64737
aI8854
aI8856
aI8857
aI8859
aI41628
aI74398
aI97387
aI8867
aI41638
aI579
aI8876
aI8877
aI8878
aI8881
aI8882
aI8883
aI41652
aI8885
aI8886
aI41655
aI41656
aI94133
aI74426
aI8891
aI90404
aI8898
aI8899
aI74436
aI8901
aI8902
aI41671
aI41672
aI8905
aI8909
aI8910
aI67021
aI8914
aI74451
aI8916
aI74457
aI8922
aI41693
aI74463
aI74466
aI41699
aI8932
aI8934
aI41703
aI8936
aI8937
aI74474
aI41707
aI8940
aI41710
aI8943
aI41712
aI74481
aI8946
aI74483
aI41716
aI94334
aI8950
aI41719
aI74490
aI8955
aI88874
aI96282
aI8960
aI8961
aI74498
aI41731
aI8964
aI8965
aI8966
aI41736
aI8969
aI8970
aI74507
aI8972
aI82112
aI8975
aI74512
aI8978
aI8979
aI72494
aI8982
aI8983
aI50491
aI8988
aI1498
aI40671
aI8991
aI8993
aI74533
aI8998
aI8999
aI9000
aI74537
aI41770
aI74539
aI9004
aI41773
aI50653
aI9009
aI9011
aI34270
aI9014
aI66859
aI9018
aI9019
aI41788
aI9023
aI83424
aI61579
aI74564
aI81977
aI41799
aI9033
aI74570
aI41803
aI41804
aI9038
aI74575
aI9041
aI9042
aI41811
aI34126
aI41813
aI41814
aI34276
aI9050
aI72506
aI41823
aI41824
aI88891
aI9060
aI74597
aI9064
aI72508
aI9066
aI34279
aI9068
aI9069
aI9070
aI74607
aI9072
aI34280
aI41843
aI9077
aI41846
aI9079
aI74617
aI74618
aI9083
aI41852
aI9086
aI91060
aI92801
aI41861
aI9096
aI83436
aI41866
aI9099
aI41868
aI9102
aI74639
aI9104
aI9105
aI9107
aI9109
aI65771
aI9113
aI67055
aI9117
aI83440
aI74659
aI41892
aI41898
aI85412
aI93050
aI9136
aI9137
aI9139
aI61598
aI74680
aI74681
aI74682
aI74683
aI41918
aI50677
aI9153
aI9156
aI34294
aI41926
aI41927
aI74696
aI74697
aI9162
aI93051
aI9165
aI41934
aI41935
aI41936
aI9169
aI9172
aI9173
aI9175
aI9176
aI9179
aI9181
aI41950
aI94416
aI9185
aI9186
aI34299
aI9188
aI9189
aI9191
aI74728
aI50684
aI9195
aI9196
aI74734
aI9199
aI9200
aI9203
aI74740
aI34302
aI81050
aI74743
aI9209
aI9210
aI41980
aI74750
aI41985
aI9218
aI9220
aI9221
aI9222
aI42861
aI9226
aI9227
aI74764
aI9229
aI9230
aI94381
aI42001
aI9236
aI94382
aI42006
aI42008
aI9242
aI42011
aI9244
aI74783
aI42016
aI74786
aI74789
aI9254
aI74791
aI9256
aI66867
aI17927
aI9263
aI42032
aI9268
aI42037
aI9271
aI42041
aI9275
aI42044
aI67082
aI42046
aI42047
aI42049
aI9282
aI42051
aI74822
aI42062
aI9295
aI42064
aI45240
aI9298
aI9299
aI97384
aI9301
aI9302
aI9305
aI9306
aI53259
aI9311
aI42080
aI42081
aI45243
aI42084
aI9320
aI9321
aI9323
aI42092
aI42093
aI74863
aI9328
aI42097
aI9333
aI42104
aI9337
aI9338
aI78015
aI74876
aI42109
aI9343
aI9344
aI42113
aI42114
aI42115
aI42119
aI42120
aI42121
aI42122
aI9355
aI74892
aI42125
aI9361
aI9363
aI9365
aI9366
aI9370
aI9371
aI9374
aI42146
aI9379
aI9381
aI9382
aI9383
aI9386
aI9387
aI93026
aI42157
aI9390
aI74927
aI9392
aI74931
aI74932
aI9397
aI9398
aI42168
aI9401
aI9402
aI74940
aI9405
aI9407
aI42177
aI9410
aI65781
aI42180
aI9413
aI42183
aI9417
aI9418
aI72567
aI74956
aI50722
aI42190
aI42191
aI9425
aI9426
aI67107
aI9428
aI9429
aI74966
aI9432
aI42201
aI9435
aI42206
aI9439
aI9441
aI57053
aI57674
aI97425
aI9449
aI9450
aI42219
aI56189
aI9456
aI9458
aI12499
aI9460
aI42229
aI9464
aI42234
aI72575
aI9470
aI75011
aI42245
aI75014
aI9480
aI83500
aI9482
aI45271
aI42252
aI9488
aI9489
aI42258
aI75028
aI75030
aI9496
aI42265
aI9499
aI75036
aI9502
aI9504
aI9505
aI9506
aI63689
aI42277
aI75046
aI9512
aI42281
aI42283
aI85389
aI9518
aI94429
aI75056
aI75057
aI75058
aI9523
aI9524
aI75062
aI42295
aI75065
aI9530
aI61663
aI90881
aI94991
aI75070
aI9535
aI9536
aI78048
aI9538
aI42309
aI9542
aI42312
aI42313
aI9547
aI75084
aI42317
aI42318
aI9551
aI9553
aI42322
aI9555
aI75093
aI9558
aI42328
aI42329
aI42330
aI9563
aI42332
aI9565
aI42334
aI9567
aI9569
aI9570
aI75107
aI42340
aI94438
aI9574
aI67132
aI9578
aI56210
aI42353
aI9586
aI9587
aI9589
aI9590
aI42359
aI9592
aI42362
aI42363
aI9596
aI61674
aI9598
aI88701
aI75136
aI96339
aI42371
aI75142
aI9607
aI42376
aI75147
aI75148
aI83522
aI78061
aI9616
aI9617
aI9619
aI9621
aI42390
aI88985
aI42392
aI67140
aI42394
aI42395
aI9628
aI9629
aI9630
aI9631
aI9633
aI42403
aI9636
aI75173
aI94158
aI42411
aI9644
aI9645
aI9646
aI23453
aI66880
aI75185
aI9650
aI9651
aI9653
aI34377
aI9656
aI42426
aI9659
aI42428
aI9662
aI61685
aI9664
aI9665
aI9666
aI42435
aI9669
aI9672
aI75211
aI42445
aI42446
aI83248
aI9680
aI75219
aI34382
aI75222
aI22145
aI9691
aI9692
aI75230
aI42463
aI75233
aI9699
aI9700
aI9701
aI9705
aI9706
aI42476
aI34386
aI9710
aI75248
aI82158
aI75250
aI9715
aI42484
aI75255
aI9720
aI42489
aI9724
aI75261
aI9726
aI9727
aI75265
aI9730
aI42501
aI9734
aI9735
aI9737
aI9738
aI75276
aI75281
aI9746
aI94467
aI9748
aI42517
aI34393
aI61700
aI9754
aI42523
aI9756
aI42526
aI9761
aI9762
aI9763
aI9764
aI9765
aI75303
aI75304
aI34396
aI75306
aI94471
aI9772
aI72626
aI9774
aI34397
aI9776
aI9778
aI75315
aI42548
aI9781
aI9782
aI71285
aI66430
aI34399
aI78090
aI42558
aI9791
aI9793
aI93072
aI75332
aI9797
aI78572
aI42568
aI9802
aI9805
aI9806
aI9807
aI42577
aI42578
aI42579
aI45326
aI75350
aI75353
aI9818
aI9819
aI42588
aI60339
aI42590
aI34405
aI42592
aI61712
aI9828
aI9829
aI42599
aI9832
aI34407
aI9838
aI56253
aI42608
aI9842
aI9843
aI42612
aI75382
aI9851
aI9853
aI9854
aI9855
aI75392
aI9857
aI42626
aI50795
aI9861
aI9862
aI75399
aI9864
aI42633
aI75402
aI75403
aI9871
aI71252
aI9873
aI75416
aI9881
aI9882
aI42651
aI75420
aI42654
aI9887
aI9888
aI9891
aI9892
aI9893
aI9894
aI75431
aI78108
aI9898
aI9899
aI42669
aI9902
aI9904
aI9906
aI71207
aI42676
aI75447
aI67188
aI9915
aI9917
aI33064
aI9920
aI9922
aI9924
aI9925
aI42695
aI9928
aI79983
aI42701
aI9934
aI75471
aI42704
aI9938
aI61731
aI75477
aI9943
aI9945
aI9947
aI42716
aI9949
aI9950
aI42719
aI75488
aI9953
aI93248
aI9957
aI50812
aI42730
aI94503
aI75502
aI9970
aI75507
aI9974
aI75511
aI9976
aI42745
aI9978
aI75515
aI88229
aI42749
aI42750
aI9983
aI9985
aI9988
aI42760
aI61740
aI9998
aI42768
aI10001
aI42772
aI75901
aI10007
aI10009
aI78127
aI42780
aI10013
aI75551
aI64710
aI10017
aI42787
aI10020
aI10021
aI10022
aI78129
aI10026
aI86533
aI10030
aI75568
aI75569
aI42802
aI10036
aI42805
aI10039
aI10040
aI75577
aI10042
aI42812
aI42813
aI45365
aI10049
aI96398
aI75589
aI10055
aI10056
aI39248
aI10060
aI10062
aI93081
aI42833
aI42834
aI75603
aI42837
aI42838
aI10071
aI90899
aI10073
aI42842
aI10075
aI10076
aI42845
aI42846
aI75615
aI10080
aI75617
aI85611
aI75621
aI10086
aI67217
aI94524
aI94173
aI10093
aI10094
aI42864
aI10097
aI10098
aI83262
aI10100
aI10101
aI10102
aI10103
aI75642
aI42877
aI42879
aI10112
aI10113
aI56299
aI75652
aI42886
aI10119
aI42889
aI42891
aI75660
aI42894
aI75663
aI75664
aI10129
aI74534
aI42900
aI10133
aI10137
aI42906
aI56303
aI42912
aI10145
aI75683
aI10149
aI10154
aI10156
aI10157
aI10158
aI10161
aI90902
aI10163
aI42932
aI10165
aI61769
aI42937
aI10170
aI69463
aI56309
aI75712
aI10178
aI42948
aI10183
aI42952
aI10187
aI75724
aI10189
aI75728
aI75729
aI42963
aI94559
aI88721
aI10201
aI10203
aI75741
aI75742
aI10207
aI42976
aI10209
aI75748
aI42981
aI10218
aI10220
aI82175
aI10225
aI75763
aI75767
aI10232
aI10233
aI10234
aI10235
aI10237
aI77811
aI10240
aI43011
aI75780
aI94550
aI58171
aI43018
aI43019
aI43020
aI43021
aI82176
aI73447
aI10258
aI10259
aI10260
aI75797
aI10263
aI43032
aI75802
aI10267
aI43038
aI83430
aI75808
aI10275
aI10277
aI75814
aI67249
aI43049
aI10283
aI75822
aI43055
aI91068
aI43057
aI75828
aI43061
aI43062
aI43063
aI10297
aI43066
aI43067
aI43068
aI43069
aI10303
aI10305
aI43074
aI56331
aI10308
aI10309
aI43079
aI43080
aI10313
aI10314
aI83639
aI10318
aI10319
aI50872
aI75858
aI61795
aI43092
aI75862
aI75863
aI94564
aI43099
aI10333
aI78181
aI43106
aI75875
aI10340
aI75878
aI10345
aI45415
aI10350
aI10351
aI10352
aI10353
aI75890
aI43125
aI43132
aI10365
aI43136
aI43138
aI10371
aI10373
aI43142
aI50881
aI63517
aI10378
aI10379
aI43150
aI10383
aI10384
aI10388
aI10390
aI10393
aI75930
aI43164
aI75934
aI43167
aI75936
aI10403
aI82181
aI43175
aI10408
aI72732
aI10411
aI10412
aI61810
aI10414
aI10417
aI52721
aI10420
aI10421
aI10422
aI43195
aI43196
aI75966
aI10431
aI43202
aI10436
aI75973
aI10438
aI43208
aI10442
aI43211
aI43213
aI10447
aI43216
aI85177
aI43219
aI10453
aI10454
aI43223
aI75992
aI77789
aI10461
aI76001
aI43236
aI72742
aI10470
aI10471
aI10473
aI10474
aI10475
aI43244
aI43246
aI10479
aI10483
aI76020
aI78206
aI10487
aI10490
aI10491
aI76028
aI43262
aI76031
aI43264
aI10497
aI10499
aI10501
aI10502
aI43271
aI43272
aI43279
aI67283
aI10513
aI43283
aI10516
aI10517
aI10518
aI10519
aI43291
aI76061
aI10526
aI10528
aI10529
aI10532
aI45446
aI43302
aI43304
aI67292
aI10538
aI10540
aI76080
aI67065
aI10547
aI76088
aI83679
aI43324
aI43327
aI10561
aI76098
aI10563
aI10565
aI43334
aI43335
aI43337
aI43339
aI10572
aI10573
aI10574
aI10575
aI10577
aI10578
aI10579
aI10580
aI78222
aI10582
aI10583
aI76121
aI43354
aI76124
aI10589
aI10591
aI76129
aI10595
aI10596
aI10597
aI10598
aI77823
aI10600
aI76137
aI10602
aI10603
aI43372
aI10605
aI76143
aI43377
aI43378
aI76148
aI76154
aI56383
aI10620
aI10623
aI43393
aI43394
aI43396
aI43398
aI10633
aI10635
aI10636
aI10637
aI10638
aI10640
aI10642
aI10643
aI43413
aI10646
aI10648
aI10650
aI76187
aI71278
aI43424
aI43425
aI43427
aI10660
aI10661
aI43430
aI10664
aI76201
aI10666
aI43436
aI10669
aI10672
aI43442
aI10675
aI10676
aI10677
aI43446
aI10680
aI54912
aI78239
aI10685
aI88395
aI43458
aI10691
aI76228
aI10694
aI10695
aI10696
aI10697
aI76234
aI43468
aI10701
aI10702
aI10703
aI10704
aI10705
aI10706
aI76243
aI10710
aI88738
aI76252
aI18170
aI78245
aI76257
aI10722
aI83707
aI43492
aI76261
aI10726
aI10727
aI76264
aI10730
aI43501
aI43503
aI10737
aI10738
aI10739
aI43509
aI10742
aI10743
aI43512
aI10745
aI43516
aI76285
aI43519
aI10754
aI43523
aI10756
aI10757
aI76295
aI76297
aI43531
aI10765
aI10766
aI78253
aI73395
aI10770
aI83715
aI10772
aI10773
aI43542
aI83251
aI10776
aI43545
aI43546
aI10780
aI10781
aI76318
aI10785
aI43558
aI10793
aI87798
aI43564
aI76334
aI10799
aI10803
aI10804
aI10805
aI67337
aI43577
aI76346
aI76347
aI43580
aI10813
aI10814
aI10815
aI43584
aI10817
aI76354
aI10819
aI43589
aI76358
aI76360
aI10826
aI10827
aI10834
aI72803
aI76372
aI94649
aI76378
aI1452
aI67067
aI43617
aI10851
aI72806
aI76390
aI43624
aI76396
aI43631
aI43632
aI43633
aI85398
aI61886
aI43641
aI43642
aI76411
aI82896
aI76413
aI76414
aI43647
aI74559
aI43650
aI10885
aI43657
aI10893
aI10895
aI76432
aI10897
aI77833
aI69104
aI43670
aI10903
aI84380
aI56431
aI76445
aI33097
aI43682
aI43683
aI76453
aI10918
aI10920
aI76457
aI43694
aI76465
aI10931
aI76470
aI94665
aI10936
aI43705
aI10939
aI10941
aI65832
aI43714
aI10947
aI43718
aI10953
aI43725
aI78285
aI10964
aI67364
aI43739
aI43741
aI43748
aI10981
aI10983
aI43752
aI43757
aI10994
aI43763
aI43764
aI40738
aI11006
aI45525
aI11008
aI11009
aI11011
aI43780
aI11013
aI43783
aI11017
aI43788
aI43789
aI43791
aI43792
aI43798
aI43800
aI43807
aI97478
aI50992
aI11044
aI43813
aI43814
aI11047
aI11049
aI43818
aI11051
aI11053
aI11058
aI11060
aI43830
aI90932
aI11064
aI11065
aI11067
aI11068
aI97479
aI43839
aI43840
aI56459
aI43844
aI72844
aI11082
aI11083
aI11084
aI11085
aI43854
aI43855
aI11088
aI43858
aI43859
aI43867
aI11100
aI43869
aI11102
aI11103
aI11104
aI43873
aI43874
aI11107
aI43876
aI72849
aI43881
aI88673
aI43884
aI43885
aI11119
aI11120
aI88535
aI11123
aI11124
aI61929
aI43897
aI43898
aI96311
aI43902
aI11139
aI11140
aI11141
aI43913
aI72855
aI96685
aI11149
aI43921
aI11154
aI43924
aI43925
aI43926
aI11159
aI11161
aI11162
aI11163
aI43933
aI11166
aI43938
aI11171
aI43942
aI94705
aI43946
aI43947
aI43949
aI11182
aI11183
aI48286
aI11185
aI11186
aI72862
aI11190
aI11191
aI11192
aI43961
aI43964
aI43967
aI72864
aI43971
aI11207
aI11209
aI11210
aI78327
aI43980
aI90937
aI11214
aI83789
aI43984
aI11217
aI43989
aI43991
aI43992
aI43994
aI11229
aI69115
aI44003
aI44004
aI44005
aI11241
aI44010
aI72871
aI11244
aI44015
aI11248
aI11251
aI11252
aI11253
aI87665
aI44024
aI11257
aI11258
aI11259
aI54782
aI11261
aI11262
aI11263
aI11268
aI41838
aI44039
aI91511
aI11274
aI11279
aI78339
aI11285
aI44055
aI44056
aI44058
aI11291
aI44060
aI44062
aI44064
aI75799
aI56497
aI11304
aI11306
aI11307
aI44076
aI72391
aI44079
aI11312
aI12808
aI96396
aI44086
aI86576
aI44088
aI44089
aI85428
aI44094
aI11327
aI67424
aI44098
aI44099
aI44102
aI11335
aI11338
aI44107
aI44109
aI44110
aI44112
aI44114
aI11347
aI44116
aI11349
aI44118
aI11353
aI44122
aI44123
aI11356
aI11359
aI11361
aI11362
aI11363
aI11365
aI11366
aI94737
aI72892
aI11372
aI11374
aI11375
aI11379
aI11383
aI44152
aI42933
aI84396
aI50571
aI66938
aI44158
aI11393
aI11395
aI11398
aI11400
aI94743
aI11404
aI44174
aI45116
aI44176
aI44177
aI44178
aI11419
aI11420
aI11424
aI44194
aI11429
aI44199
aI11433
aI11434
aI44203
aI44204
aI61484
aI11440
aI56520
aI11443
aI11444
aI11446
aI11447
aI44216
aI44217
aI11450
aI11452
aI11454
aI64758
aI11458
aI11459
aI51062
aI45601
aI65980
aI57251
aI83115
aI11468
aI11469
aI44239
aI44240
aI11473
aI62052
aI56526
aI11478
aI11481
aI44251
aI11487
aI11488
aI11489
aI11492
aI45606
aI87673
aI11496
aI44265
aI11499
aI44270
aI11505
aI94761
aI11512
aI11513
aI11515
aI11516
aI72398
aI88765
aI44290
aI11523
aI71307
aI11525
aI11527
aI44301
aI44305
aI11543
aI90948
aI11545
aI11546
aI78383
aI72922
aI97495
aI87675
aI11564
aI11565
aI11566
aI11567
aI83848
aI11570
aI11571
aI11572
aI44342
aI83849
aI44345
aI11578
aI44347
aI11580
aI66199
aI44351
aI96405
aI11585
aI44355
aI11589
aI44360
aI11593
aI44362
aI11596
aI44365
aI44366
aI11599
aI11600
aI44373
aI44375
aI72932
aI11611
aI11617
aI44387
aI11621
aI94224
aI11625
aI44394
aI44395
aI11629
aI11631
aI11632
aI65855
aI44402
aI11635
aI11636
aI11637
aI44407
aI11641
aI44413
aI11646
aI11647
aI44416
aI76456
aI44419
aI85496
aI11656
aI44428
aI11661
aI44435
aI44438
aI11673
aI11675
aI78405
aI69130
aI11683
aI44452
aI44454
aI44456
aI11689
aI11690
aI45639
aI11692
aI11693
aI11694
aI44463
aI11699
aI44468
aI44469
aI11703
aI44472
aI75041
aI51103
aI11711
aI11712
aI83872
aI45643
aI11718
aI11719
aI44488
aI11721
aI91514
aI18338
aI73496
aI44497
aI97501
aI11731
aI11735
aI11736
aI45127
aI78415
aI11743
aI11744
aI11746
aI34216
aI44516
aI44518
aI44520
aI40763
aI11754
aI11756
aI44527
aI11762
aI67497
aI11768
aI11773
aI45653
aI11777
aI44546
aI11779
aI11780
aI44549
aI72961
aI90956
aI83884
aI11791
aI44565
aI44569
aI11806
aI11808
aI45659
aI11814
aI11816
aI11817
aI11818
aI11819
aI11825
aI44601
aI11836
aI44606
aI11839
aI11840
aI11841
aI44610
aI82229
aI44614
aI11847
aI44616
aI96209
aI88776
aI11853
aI44622
aI78435
aI44629
aI11862
aI11865
aI11866
aI11867
aI83321
aI11873
aI11877
aI44647
aI11880
aI67516
aI11882
aI11883
aI11884
aI44655
aI11888
aI44657
aI11891
aI11892
aI11893
aI11894
aI11896
aI56596
aI44667
aI11900
aI11901
aI11904
aI11905
aI44674
aI11907
aI11908
aI11909
aI11911
aI11912
aI11914
aI44684
aI44685
aI11923
aI44693
aI93143
aI44696
aI11929
aI11933
aI44703
aI11937
aI11938
aI44707
aI11940
aI77480
aI11945
aI11946
aI44715
aI65765
aI18376
aI11954
aI11956
aI67529
aI77496
aI77501
aI66638
aI77504
aI11969
aI11970
aI67531
aI77509
aI11974
aI67532
aI44747
aI56610
aI11983
aI11985
aI77522
aI77525
aI11992
aI11993
aI77530
aI11995
aI44765
aI77534
aI11999
aI77536
aI77537
aI77539
aI44772
aI44775
aI12009
aI77870
aI12012
aI12013
aI44784
aI44785
aI12018
aI94846
aI73001
aI44793
aI12026
aI12028
aI73002
aI44798
aI12031
aI77568
aI77571
aI12036
aI44807
aI73004
aI77578
aI12043
aI44812
aI12045
aI42955
aI12047
aI12049
aI12050
aI58231
aI77588
aI77589
aI65869
aI12056
aI94852
aI64778
aI12059
aI12061
aI12063
aI12064
aI67547
aI77604
aI94854
aI56625
aI12077
aI44846
aI77615
aI77616
aI56627
aI12085
aI12086
aI73508
aI12089
aI12090
aI77628
aI12093
aI44863
aI44864
aI12098
aI12099
aI44868
aI12101
aI44870
aI12107
aI12109
aI44879
aI12113
aI44882
aI88877
aI44884
aI44886
aI44887
aI92826
aI12122
aI77660
aI12126
aI44895
aI77665
aI44898
aI12133
aI77670
aI77675
aI77677
aI12142
aI74601
aI44913
aI44919
aI44920
aI77689
aI12154
aI77692
aI12157
aI44926
aI44929
aI77698
aI12164
aI12165
aI68055
aI77704
aI75693
aI44938
aI77707
aI44940
aI44943
aI12177
aI12179
aI77716
aI77718
aI12183
aI12188
aI12189
aI73029
aI12192
aI12193
aI44962
aI12196
aI44965
aI12199
aI44968
aI12201
aI12202
aI56647
aI83954
aI83103
aI77743
aI12208
aI44978
aI12212
aI44984
aI77754
aI44988
aI12222
aI90575
aI44993
aI12226
aI12227
aI67574
aI12230
aI77768
aI74604
aI45003
aI45004
aI45005
aI77774
aI12239
aI12241
aI12243
aI45012
aI12246
aI45019
aI22995
aI92814
aI12255
aI45024
aI34233
aI12260
aI12966
aI12262
aI77799
aI77800
aI45035
aI86062
aI45037
aI77806
aI12271
aI45043
aI78970
aI45046
aI12279
aI77816
aI77818
aI45052
aI94890
aI77822
aI12287
aI12288
aI12289
aI77827
aI12294
aI12295
aI12297
aI77845
aI45079
aI12313
aI12314
aI45084
aI45085
aI83973
aI12323
aI77860
aI77861
aI77863
aI45096
aI45099
aI12334
aI45103
aI12339
aI77877
aI12344
aI77881
aI12346
aI12347
aI12348
aI75699
aI45118
aI78517
aI12353
aI45125
aI12359
aI12360
aI67596
aI12363
aI80064
aI45135
aI45138
aI12371
aI45141
aI77910
aI12378
aI92067
aI77918
aI49513
aI12385
aI45154
aI12387
aI12390
aI12391
aI12392
aI94944
aI45164
aI12397
aI12402
aI45171
aI12405
aI45174
aI45175
aI75701
aI85658
aI12412
aI56682
aI45183
aI45187
aI45188
aI45189
aI77959
aI12425
aI12427
aI12429
aI45202
aI12435
aI12436
aI45205
aI12438
aI12439
aI45209
aI73071
aI77981
aI45217
aI45218
aI77987
aI77989
aI12454
aI83996
aI70247
aI12461
aI12464
aI45234
aI73075
aI12468
aI78005
aI78007
aI12472
aI12473
aI12474
aI12475
aI12477
aI12478
aI12479
aI12481
aI65091
aI45256
aI12490
aI67618
aI12495
aI45264
aI67619
aI45270
aI12503
aI45272
aI12506
aI78043
aI12510
aI97527
aI12512
aI45282
aI12515
aI78053
aI45287
aI45288
aI12521
aI12523
aI12525
aI78062
aI78063
aI12531
aI12532
aI12536
aI12537
aI45306
aI78076
aI78078
aI45312
aI56704
aI12546
aI67733
aI12548
aI12550
aI78087
aI12552
aI12554
aI94935
aI12557
aI12558
aI45327
aI12560
aI45329
aI45330
aI73091
aI45332
aI45336
aI12569
aI12571
aI45340
aI12573
aI12575
aI12578
aI45347
aI73094
aI78119
aI85527
aI12587
aI78126
aI45789
aI12592
aI56712
aI78130
aI12595
aI12597
aI12600
aI45373
aI78143
aI12608
aI12609
aI45379
aI12612
aI45381
aI45383
aI12618
aI45390
aI45391
aI45392
aI12627
aI78164
aI12630
aI12631
aI12632
aI94948
aI12635
aI12637
aI12638
aI12639
aI45408
aI12641
aI94258
aI12645
aI78182
aI12647
aI77772
aI23454
aI45420
aI12653
aI12655
aI12656
aI45427
aI12660
aI47340
aI78198
aI78199
aI71345
aI12666
aI12668
aI45158
aI45438
aI45439
aI45440
aI62187
aI12676
aI12677
aI12678
aI12679
aI12680
aI45804
aI78218
aI12685
aI12686
aI73112
aI12692
aI12693
aI12695
aI78233
aI54699
aI45467
aI12700
aI45469
aI12702
aI12703
aI12705
aI12706
aI12707
aI45477
aI78577
aI12712
aI12714
aI12715
aI45484
aI45485
aI12718
aI78255
aI78258
aI88805
aI12724
aI12725
aI12726
aI45496
aI45497
aI45499
aI45500
aI45501
aI12734
aI45503
aI12736
aI45508
aI78278
aI12743
aI78280
aI12746
aI12747
aI12748
aI12749
aI12750
aI56739
aI12757
aI12760
aI69166
aI45532
aI45533
aI12767
aI12769
aI78587
aI45543
aI45544
aI45545
aI12779
aI97536
aI94973
aI12784
aI78322
aI73619
aI45559
aI45563
aI12796
aI45565
aI12798
aI78335
aI73131
aI12806
aI12807
aI78344
aI78345
aI78346
aI45580
aI94978
aI45582
aI78353
aI78354
aI78355
aI12820
aI78357
aI45590
aI84057
aI45595
aI78364
aI92609
aI78597
aI45600
aI12833
aI45603
aI94982
aI12838
aI45610
aI45611
aI12846
aI12847
aI78387
aI45620
aI94985
aI81265
aI75716
aI12861
aI12863
aI12864
aI12865
aI12869
aI12871
aI78408
aI45641
aI12875
aI45645
aI69481
aI12880
aI45652
aI12885
aI12886
aI7609
aI33474
aI12891
aI45663
aI12896
aI45666
aI64806
aI45668
aI45669
aI62225
aI12904
aI46257
aI78444
aI12910
aI12913
aI45682
aI12915
aI78452
aI93176
aI78454
aI78455
aI45688
aI12921
aI12923
aI78460
aI45694
aI45696
aI45698
aI12931
aI12937
aI78474
aI12939
aI78476
aI78477
aI45713
aI12946
aI78483
aI12950
aI45719
aI45720
aI12956
aI12957
aI78494
aI45727
aI81175
aI45730
aI78500
aI45734
aI45736
aI12974
aI45746
aI12981
aI73161
aI78520
aI12988
aI12989
aI45856
aI12994
aI78531
aI12999
aI13000
aI94270
aI78540
aI45774
aI78543
aI13008
aI84088
aI13010
aI13011
aI56782
aI45782
aI57172
aI13017
aI45788
aI13021
aI13022
aI45791
aI45793
aI13027
aI78564
aI45798
aI13031
aI45800
aI45803
aI13036
aI45805
aI45807
aI45809
aI78579
aI13045
aI45815
aI13048
aI96542
aI13051
aI97545
aI45822
aI45824
aI45867
aI13060
aI13061
aI45831
aI78600
aI45833
aI45835
aI50627
aI45839
aI13073
aI78612
aI78613
aI13078
aI13080
aI13081
aI13085
aI13088
aI45857
aI78626
aI13091
aI77906
aI45862
aI45864
aI13099
aI13102
aI43732
aI13105
aI45874
aI13107
aI45876
aI13109
aI78646
aI13112
aI45881
aI45882
aI45883
aI13119
aI86636
aI45893
aI45897
aI13131
aI13133
aI13135
aI45904
aI78673
aI13138
aI78675
aI13140
aI45909
aI45912
aI78681
aI13146
aI78684
aI78685
aI78686
aI78687
aI78690
aI13156
aI13157
aI13158
aI45927
aI78697
aI45930
aI13163
aI13164
aI13165
aI78703
aI13171
aI53989
aI78710
aI13183
aI13184
aI45953
aI78722
aI13190
aI78727
aI13193
aI78730
aI73545
aI45968
aI78737
aI78738
aI13203
aI13204
aI13206
aI78743
aI78744
aI45977
aI13210
aI13211
aI78749
aI78750
aI45983
aI13216
aI78754
aI13219
aI78756
aI45990
aI45992
aI84124
aI13231
aI13232
aI13235
aI46004
aI46005
aI46006
aI78775
aI13240
aI46010
aI46011
aI46015
aI13248
aI46017
aI46018
aI78787
aI13252
aI93270
aI78794
aI13260
aI13261
aI46031
aI46032
aI13267
aI78805
aI46039
aI78808
aI46043
aI73210
aI13278
aI78816
aI46049
aI51033
aI13286
aI78823
aI46056
aI13289
aI46058
aI46059
aI45906
aI13294
aI78832
aI13298
aI13300
aI13301
aI46070
aI84137
aI13304
aI13306
aI46075
aI13309
aI13312
aI56832
aI13317
aI46088
aI46090
aI13324
aI13326
aI13327
aI78865
aI46099
aI13332
aI78871
aI73220
aI93707
aI78878
aI46113
aI13347
aI78884
aI13349
aI46119
aI78889
aI46124
aI13357
aI13359
aI46129
aI13362
aI13363
aI13364
aI13365
aI46134
aI13369
aI78907
aI13372
aI78909
aI67765
aI13376
aI13379
aI46148
aI78920
aI13386
aI46155
aI13388
aI13389
aI13392
aI13394
aI13398
aI84153
aI46169
aI13404
aI46173
aI13406
aI82281
aI46178
aI13411
aI78948
aI78949
aI56849
aI46184
aI46186
aI13420
aI13421
aI46190
aI46191
aI91061
aI13427
aI67774
aI13430
aI13431
aI46201
aI13434
aI84159
aI78973
aI13438
aI13439
aI13442
aI45931
aI13444
aI87738
aI13448
aI45932
aI13450
aI13452
aI13453
aI78991
aI78993
aI84465
aI78250
aI46234
aI13468
aI46239
aI79008
aI79009
aI46250
aI46251
aI79020
aI46253
aI13487
aI71159
aI13489
aI79029
aI46264
aI78708
aI46266
aI72464
aI63735
aI46272
aI46273
aI13507
aI13509
aI94287
aI46283
aI13516
aI46285
aI79055
aI13520
aI13521
aI13524
aI13527
aI13528
aI79067
aI46300
aI79069
aI13534
aI13535
aI79072
aI46306
aI13539
aI73254
aI13542
aI13543
aI46313
aI79082
aI13547
aI79086
aI13552
aI73256
aI46322
aI13556
aI13560
aI13561
aI79103
aI53917
aI13572
aI79109
aI79110
aI13576
aI46345
aI13578
aI88253
aI13581
aI46351
aI67800
aI46355
aI46356
aI13589
aI46359
aI745
aI46362
aI46363
aI13596
aI13602
aI77923
aI13606
aI13607
aI79145
aI79146
aI13612
aI13614
aI13615
aI79152
aI46385
aI79158
aI45961
aI13625
aI79165
aI13631
aI46405
aI13640
aI13642
aI13646
aI46415
aI79185
aI13651
aI13655
aI13656
aI79193
aI62351
aI79198
aI13666
aI68105
aI79206
aI46439
aI46440
aI46443
aI46447
aI46448
aI79217
aI45971
aI46452
aI13685
aI13689
aI13690
aI50297
aI79228
aI13693
aI13694
aI79232
aI13700
aI78742
aI13702
aI73281
aI46475
aI13708
aI13709
aI79249
aI13715
aI13717
aI13718
aI79256
aI13721
aI13722
aI79260
aI13728
aI13729
aI46500
aI46502
aI73287
aI72472
aI13744
aI46513
aI53923
aI73289
aI13752
aI46521
aI78751
aI46525
aI79294
aI46527
aI13760
aI45984
aI13764
aI13765
aI13766
aI86072
aI13770
aI46539
aI56909
aI46545
aI13778
aI13779
aI46556
aI13789
aI13790
aI46559
aI13793
aI79330
aI13795
aI78758
aI13798
aI13799
aI46569
aI13802
aI13803
aI43082
aI79344
aI13809
aI46582
aI13815
aI13816
aI73300
aI79355
aI13820
aI13821
aI13822
aI91024
aI13828
aI79365
aI13831
aI46600
aI46601
aI46602
aI13835
aI78099
aI13838
aI13842
aI13843
aI13844
aI79381
aI13847
aI45999
aI13852
aI13854
aI13855
aI46626
aI46630
aI79400
aI46635
aI79404
aI46637
aI46639
aI69203
aI78771
aI13877
aI93208
aI46647
aI79419
aI46654
aI13887
aI46656
aI13890
aI46659
aI13893
aI63748
aI13895
aI46665
aI46667
aI13900
aI13901
aI65778
aI13903
aI78776
aI13907
aI46677
aI13911
aI46682
aI13916
aI46685
aI13921
aI72478
aI88845
aI13925
aI79463
aI88069
aI13929
aI46698
aI73319
aI13932
aI46701
aI46702
aI13938
aI13942
aI13943
aI13945
aI46715
aI48474
aI24170
aI46718
aI13951
aI46722
aI79491
aI79492
aI46726
aI78785
aI46728
aI13963
aI79500
aI79501
aI13966
aI13969
aI46739
aI46741
aI13974
aI79512
aI13977
aI46746
aI46749
aI13985
aI13989
aI13990
aI79530
aI13995
aI13997
aI46766
aI67869
aI46769
aI14003
aI14005
aI14007
aI46777
aI61196
aI46780
aI79550
aI14017
aI14018
aI82156
aI14020
aI56950
aI14022
aI14023
aI14025
aI46795
aI14029
aI46029
aI84259
aI14038
aI14039
aI14040
aI14041
aI14042
aI46811
aI79580
aI79581
aI79582
aI14048
aI76472
aI14053
aI46822
aI46823
aI46824
aI79594
aI46827
aI79596
aI14061
aI79598
aI14065
aI14066
aI14068
aI79605
aI14070
aI79609
aI14075
aI14076
aI14077
aI14079
aI14080
aI67883
aI79622
aI14087
aI86130
aI46861
aI14095
aI79632
aI56963
aI79637
aI14102
aI46871
aI14104
aI14106
aI14107
aI14111
aI84272
aI46882
aI14115
aI56966
aI46890
aI14123
aI79661
aI78813
aI5926
aI14133
aI14134
aI79672
aI67892
aI62665
aI14139
aI14140
aI14141
aI14144
aI14147
aI67894
aI14150
aI14152
aI14153
aI14154
aI14155
aI14156
aI79693
aI79694
aI46927
aI14161
aI14164
aI14166
aI46936
aI65998
aI46938
aI46939
aI79708
aI46941
aI14174
aI79714
aI14179
aI46948
aI46949
aI14182
aI46953
aI14187
aI14188
aI64849
aI79727
aI14193
aI14195
aI14196
aI14198
aI79735
aI73364
aI55087
aI78826
aI46977
aI14210
aI78827
aI79748
aI79749
aI70418
aI79751
aI46984
aI57212
aI14218
aI14220
aI14221
aI78829
aI79762
aI46997
aI79767
aI47000
aI47001
aI14235
aI14237
aI47007
aI47008
aI79777
aI79779
aI47012
aI79782
aI14247
aI14250
aI79787
aI78834
aI40605
aI79792
aI79794
aI14260
aI14261
aI47031
aI47033
aI84298
aI79806
aI67034
aI14273
aI14274
aI14277
aI14278
aI40609
aI14280
aI47050
aI47051
aI79820
aI14285
aI14286
aI14289
aI14290
aI47059
aI47061
aI47063
aI14296
aI73380
aI79834
aI35151
aI47068
aI79837
aI14302
aI47073
aI14306
aI47075
aI79844
aI14309
aI14310
aI79848
aI14315
aI47084
aI79853
aI47087
aI57000
aI79858
aI14324
aI14327
aI14329
aI47099
aI14332
aI66872
aI14334
aI79871
aI46080
aI79874
aI73583
aI14341
aI47111
aI14345
aI79882
aI14347
aI87768
aI14349
aI14350
aI14351
aI79888
aI79893
aI67929
aI83404
aI47135
aI14368
aI14369
aI14370
aI14371
aI47140
aI47141
aI63764
aI14375
aI47144
aI79913
aI14378
aI47148
aI14382
aI14383
aI47152
aI47154
aI40627
aI14388
aI14389
aI47158
aI79927
aI14393
aI47163
aI14397
aI73397
aI47168
aI14405
aI11007
aI84321
aI14408
aI14410
aI14411
aI14412
aI79949
aI47182
aI47184
aI47187
aI41943
aI47192
aI74677
aI78863
aI79964
aI40634
aI14432
aI47202
aI14435
aI47207
aI79976
aI40636
aI84327
aI14444
aI41569
aI73405
aI14448
aI14450
aI47223
aI47225
aI82316
aI14459
aI47232
aI80001
aI14470
aI14471
aI47240
aI47242
aI47243
aI80012
aI14478
aI57027
aI80029
aI80033
aI14498
aI14500
aI80038
aI80039
aI87168
aI80041
aI14506
aI14508
aI47277
aI47280
aI47282
aI14516
aI47285
aI14518
aI40649
aI80057
aI80058
aI72498
aI80060
aI71407
aI47296
aI47299
aI86683
aI80072
aI14538
aI80075
aI93715
aI80077
aI14544
aI14547
aI14548
aI80085
aI87823
aI80087
aI47320
aI47321
aI47322
aI14556
aI14557
aI14558
aI14559
aI14560
aI82028
aI14563
aI80100
aI80102
aI14567
aI80104
aI67964
aI14570
aI75773
aI14572
aI67044
aI14577
aI80114
aI80115
aI47351
aI47352
aI47353
aI14586
aI14587
aI80124
aI80125
aI47358
aI84352
aI47362
aI14596
aI47366
aI84354
aI14606
aI14608
aI14613
aI47382
aI14615
aI47384
aI84356
aI80154
aI14619
aI47388
aI61590
aI47391
aI80160
aI14626
aI80164
aI14629
aI80166
aI14634
aI80171
aI14637
aI40669
aI47408
aI80177
aI14642
aI46131
aI14644
aI14645
aI46315
aI46132
aI80186
aI14651
aI14652
aI47422
aI47424
aI14659
aI14661
aI14662
aI67047
aI80200
aI47434
aI14667
aI14668
aI14669
aI14671
aI81232
aI47442
aI14675
aI47445
aI80214
aI47448
aI80217
aI14682
aI80219
aI94326
aI47455
aI14688
aI47461
aI14695
aI80232
aI47465
aI14698
aI57063
aI14700
aI80237
aI47470
aI47473
aI14706
aI47475
aI14711
aI14712
aI78911
aI14716
aI47485
aI47486
aI14719
aI34315
aI46144
aI80258
aI14723
aI14724
aI14725
aI80262
aI42355
aI74434
aI40684
aI14731
aI14733
aI80270
aI14735
aI47505
aI14738
aI80275
aI14740
aI14741
aI14743
aI80280
aI14745
aI14747
aI80285
aI80287
aI14754
aI14755
aI80292
aI14757
aI14759
aI80297
aI14764
aI47534
aI47535
aI47536
aI14769
aI14771
aI90855
aI14776
aI14777
aI47546
aI14780
aI14784
aI14787
aI80327
aI46156
aI80330
aI14797
aI14798
aI47571
aI14804
aI80341
aI47576
aI14809
aI80346
aI80347
aI14812
aI73466
aI80350
aI14815
aI46160
aI14820
aI80357
aI47593
aI47595
aI12496
aI96824
aI14831
aI14834
aI47603
aI14839
aI84511
aI14843
aI90759
aI80384
aI14854
aI40705
aI47624
aI14857
aI47627
aI14861
aI47631
aI14864
aI47634
aI80404
aI14871
aI14872
aI14874
aI14875
aI60817
aI14879
aI47649
aI57492
aI14885
aI14887
aI14888
aI46172
aI14892
aI14899
aI88480
aI47672
aI74693
aI13407
aI80444
aI14910
aI47684
aI80455
aI73484
aI14922
aI47691
aI80463
aI68147
aI14930
aI14934
aI47704
aI47705
aI82332
aI47711
aI63783
aI14947
aI87788
aI40721
aI14953
aI14954
aI47723
aI47724
aI85606
aI47727
aI80496
aI80498
aI14965
aI80503
aI14969
aI80506
aI14971
aI81242
aI14974
aI68032
aI47747
aI14980
aI47750
aI14984
aI80521
aI47754
aI40727
aI47756
aI80526
aI14992
aI47761
aI47763
aI91063
aI47767
aI15000
aI92668
aI15003
aI80540
aI40730
aI15006
aI68037
aI80544
aI47778
aI80550
aI34325
aI15021
aI80560
aI15025
aI15026
aI47796
aI15029
aI80566
aI47799
aI15032
aI47419
aI15034
aI38690
aI47806
aI15041
aI47810
aI15043
aI78966
aI73505
aI15048
aI84428
aI46589
aI15053
aI47823
aI47824
aI15059
aI15061
aI15062
aI15064
aI15065
aI80603
aI96521
aI46202
aI80607
aI80609
aI15074
aI15075
aI47845
aI80614
aI15079
aI47848
aI84519
aI92157
aI80620
aI15085
aI15089
aI80626
aI15091
aI15094
aI15095
aI15096
aI15098
aI80635
aI80636
aI65786
aI86702
aI15104
aI47875
aI47877
aI34328
aI47879
aI15113
aI47882
aI47883
aI15117
aI57242
aI15122
aI47891
aI97614
aI80661
aI80662
aI35289
aI15128
aI46212
aI15132
aI78225
aI47902
aI15137
aI47906
aI47909
aI15142
aI47912
aI15145
aI40876
aI15151
aI47920
aI47922
aI15155
aI47924
aI15157
aI46217
aI47928
aI40756
aI47930
aI15163
aI15165
aI15166
aI60517
aI15168
aI15171
aI15172
aI15173
aI83431
aI57143
aI15180
aI15181
aI78989
aI15184
aI47954
aI47960
aI47962
aI47966
aI68069
aI15201
aI47971
aI47973
aI15206
aI84455
aI97617
aI15216
aI47985
aI80756
aI15221
aI86706
aI64041
aI15225
aI96519
aI15231
aI80769
aI15236
aI80773
aI15238
aI15240
aI80778
aI80779
aI15244
aI38697
aI48017
aI80786
aI57155
aI15257
aI15258
aI15259
aI15261
aI48030
aI40773
aI15266
aI80803
aI80804
aI48037
aI15270
aI15271
aI15272
aI79004
aI15274
aI15275
aI15277
aI48048
aI48111
aI15284
aI48054
aI40777
aI15289
aI80826
aI79007
aI48060
aI48062
aI15295
aI48064
aI96039
aI15300
aI80838
aI97620
aI80843
aI15308
aI80847
aI15312
aI68088
aI80850
aI80851
aI94347
aI48086
aI80857
aI48093
aI48094
aI61423
aI15328
aI48097
aI15332
aI48101
aI48102
aI48103
aI48104
aI71434
aI15339
aI15343
aI15345
aI48116
aI80886
aI48119
aI15352
aI15353
aI48122
aI15358
aI15359
aI15360
aI48131
aI15364
aI15366
aI80903
aI15370
aI57175
aI48140
aI15375
aI40792
aI80914
aI48147
aI15380
aI92167
aI15385
aI15387
aI15388
aI15389
aI48159
aI79024
aI15395
aI15399
aI48169
aI87174
aI15405
aI15406
aI94436
aI15408
aI38510
aI48184
aI80953
aI15418
aI48188
aI48189
aI15422
aI15424
aI73568
aI80962
aI80964
aI48197
aI48199
aI15432
aI15434
aI80972
aI15439
aI48208
aI67073
aI15445
aI15446
aI46265
aI48218
aI15453
aI15454
aI15456
aI15462
aI15463
aI15465
aI48235
aI15468
aI81010
aI48244
aI15477
aI15478
aI40809
aI15481
aI15484
aI40810
aI48254
aI48255
aI81024
aI48258
aI70348
aI86715
aI15494
aI48263
aI48266
aI15501
aI15502
aI57197
aI15507
aI48277
aI15511
aI48282
aI40815
aI15518
aI85259
aI81056
aI86716
aI81062
aI48295
aI15528
aI48297
aI15531
aI15532
aI57202
aI48302
aI75609
aI15537
aI15539
aI15541
aI48311
aI15545
aI48314
aI15547
aI81088
aI86717
aI74518
aI94355
aI48326
aI48328
aI48329
aI15562
aI81100
aI15565
aI48337
aI15570
aI15571
aI15574
aI48343
aI92849
aI81114
aI15581
aI81120
aI46288
aI15586
aI15589
aI81126
aI46289
aI15592
aI40828
aI48362
aI68135
aI48364
aI15597
aI15599
aI15600
aI48369
aI81138
aI15604
aI81141
aI15609
aI39166
aI81150
aI48383
aI15616
aI84523
aI15621
aI48391
aI81160
aI81161
aI48394
aI46295
aI68141
aI81168
aI48405
aI15639
aI81176
aI68143
aI48413
aI15646
aI81184
aI15650
aI48419
aI88485
aI48422
aI93858
aI81192
aI15659
aI81198
aI48431
aI15664
aI15666
aI15667
aI46302
aI45258
aI15673
aI15674
aI81211
aI15677
aI15678
aI15681
aI81220
aI15688
aI15690
aI81228
aI15694
aI57229
aI15696
aI81233
aI15698
aI48468
aI48469
aI15702
aI15703
aI15706
aI48478
aI15711
aI15712
aI15718
aI81255
aI81257
aI15723
aI81260
aI15725
aI48496
aI15729
aI15731
aI74479
aI15736
aI15738
aI48508
aI81278
aI81279
aI15745
aI15747
aI48519
aI81288
aI15755
aI15756
aI15758
aI48527
aI48528
aI73624
aI15762
aI84547
aI48532
aI15765
aI40857
aI15768
aI15772
aI48541
aI80925
aI48548
aI48551
aI81321
aI48555
aI15788
aI15789
aI65323
aI48563
aI81333
aI15798
aI46324
aI15804
aI15806
aI82361
aI48579
aI15812
aI15815
aI48584
aI15818
aI81355
aI15822
aI15824
aI48593
aI40867
aI15828
aI68174
aI15830
aI81367
aI81368
aI48601
aI81370
aI15837
aI81374
aI40869
aI81376
aI81377
aI81378
aI15845
aI48614
aI48616
aI15849
aI48618
aI35410
aI15855
aI48625
aI15858
aI48627
aI15860
aI48629
aI15862
aI81399
aI35412
aI48636
aI57258
aI81406
aI48639
aI48641
aI72543
aI73643
aI80181
aI15881
aI84567
aI15884
aI15885
aI15886
aI48655
aI15888
aI48658
aI48661
aI15894
aI48663
aI15896
aI48666
aI15899
aI35418
aI15902
aI81441
aI15906
aI48675
aI48677
aI15912
aI48682
aI81451
aI15916
aI15920
aI15921
aI48690
aI40883
aI15925
aI15927
aI15928
aI15931
aI48703
aI15936
aI35424
aI15938
aI81475
aI15940
aI48711
aI15945
aI15946
aI15947
aI48716
aI15949
aI48718
aI46349
aI15952
aI15953
aI15957
aI15958
aI68196
aI15962
aI15963
aI15964
aI15966
aI35429
aI96551
aI73659
aI15974
aI48743
aI48745
aI81515
aI73661
aI90497
aI48754
aI15987
aI81524
aI90046
aI15990
aI15992
aI15993
aI15995
aI15996
aI15999
aI81536
aI16002
aI48772
aI16007
aI48776
aI81545
aI48779
aI16013
aI81552
aI48786
aI16023
aI73668
aI81563
aI71466
aI48798
aI73669
aI48800
aI84592
aI16034
aI81571
aI48804
aI40902
aI48806
aI16039
aI16041
aI16042
aI16048
aI16049
aI48818
aI48820
aI48822
aI48823
aI40906
aI16062
aI68213
aI16066
aI16067
aI48837
aI76049
aI16074
aI68215
aI48844
aI79138
aI16078
aI16079
aI93413
aI81618
aI16083
aI16084
aI81621
aI16086
aI48855
aI16088
aI81628
aI81630
aI48863
aI16097
aI16098
aI68186
aI48872
aI16105
aI16106
aI48876
aI16115
aI16116
aI16117
aI16118
aI48887
aI16120
aI73684
aI16122
aI81659
aI16126
aI73685
aI16128
aI62083
aI48898
aI16131
aI67096
aI48909
aI81678
aI81681
aI16146
aI16147
aI48919
aI81689
aI16154
aI46383
aI81694
aI16159
aI16160
aI16161
aI81698
aI16174
aI16175
aI16176
aI48945
aI90078
aI16183
aI16184
aI16186
aI16188
aI16189
aI16190
aI81727
aI90080
aI81730
aI43375
aI16201
aI16202
aI81742
aI81743
aI81744
aI48977
aI48978
aI81747
aI46393
aI81752
aI40932
aI48993
aI48994
aI48998
aI49000
aI49004
aI87616
aI13629
aI81776
aI84627
aI81781
aI49014
aI90089
aI85649
aI68191
aI49019
aI81788
aI91105
aI49029
aI49031
aI81800
aI49033
aI81806
aI49040
aI49042
aI49043
aI90094
aI68192
aI88924
aI49065
aI49067
aI49068
aI84637
aI78013
aI49074
aI73715
aI81844
aI49077
aI49078
aI35487
aI49084
aI81853
aI49086
aI5999
aI72734
aI81862
aI49096
aI40951
aI49100
aI81870
aI49105
aI81875
aI93727
aI81877
aI81880
aI81882
aI79183
aI49117
aI49120
aI81889
aI81890
aI49125
aI87835
aI81898
aI49131
aI81901
aI73725
aI49138
aI81908
aI73726
aI72123
aI49145
aI81914
aI91109
aI49148
aI49152
aI49154
aI81923
aI81925
aI81927
aI49162
aI79191
aI81932
aI49166
aI81936
aI49169
aI84563
aI81939
aI81942
aI81945
aI81947
aI49180
aI49184
aI67977
aI81959
aI94164
aI49194
aI81963
aI49196
aI68274
aI81967
aI49201
aI81973
aI49207
aI68276
aI49210
aI49212
aI49213
aI68277
aI49217
aI81988
aI81991
aI49225
aI49226
aI49227
aI49228
aI93294
aI49230
aI57357
aI49234
aI82004
aI49237
aI35513
aI35514
aI49250
aI35515
aI69505
aI49255
aI82024
aI13671
aI83035
aI73746
aI49263
aI68286
aI82038
aI49272
aI49273
aI75179
aI70552
aI54015
aI82054
aI82059
aI49294
aI40984
aI35523
aI27388
aI75964
aI81294
aI82073
aI49306
aI49308
aI49310
aI68293
aI49313
aI82088
aI82090
aI73757
aI49328
aI78671
aI82108
aI49344
aI73760
aI82114
aI68299
aI49349
aI73761
aI68300
aI49355
aI49358
aI68301
aI49361
aI82130
aI49364
aI82133
aI49368
aI82138
aI49372
aI79226
aI49375
aI35536
aI82148
aI84689
aI88055
aI49388
aI68306
aI49390
aI79229
aI49392
aI49395
aI49397
aI82166
aI49399
aI49405
aI68309
aI49408
aI82179
aI35542
aI49415
aI49417
aI49419
aI49420
aI81298
aI49423
aI75180
aI80207
aI70387
aI49436
aI49438
aI90160
aI49442
aI68315
aI49444
aI91119
aI82217
aI82220
aI47474
aI84701
aI82226
aI68318
aI82231
aI49464
aI51935
aI82239
aI75835
aI68320
aI49476
aI46476
aI73783
aI87301
aI49493
aI82263
aI68324
aI82267
aI49503
aI49505
aI90171
aI82276
aI68326
aI41020
aI82282
aI68327
aI49516
aI73789
aI49521
aI82291
aI82295
aI49529
aI57407
aI82300
aI49537
aI46486
aI82312
aI49545
aI49547
aI49548
aI68333
aI49552
aI49553
aI75266
aI84576
aI35567
aI49564
aI46490
aI49566
aI49567
aI82336
aI82337
aI82338
aI82340
aI82344
aI49581
aI49583
aI82352
aI69301
aI49586
aI82358
aI49591
aI49593
aI83486
aI82363
aI82364
aI73802
aI82395
aI49599
aI49602
aI49605
aI82374
aI49613
aI82382
aI82383
aI82385
aI82386
aI82387
aI49621
aI49622
aI49625
aI82394
aI73807
aI84730
aI49631
aI49633
aI82406
aI41041
aI82408
aI94399
aI49646
aI84733
aI49648
aI73811
aI49653
aI82422
aI82427
aI49663
aI49664
aI49665
aI49666
aI82437
aI45299
aI49674
aI82444
aI83256
aI82447
aI35587
aI49685
aI82454
aI49687
aI64940
aI49693
aI68357
aI82466
aI87854
aI68358
aI49703
aI49704
aI73820
aI82474
aI35591
aI49713
aI77701
aI47639
aI49719
aI49720
aI82489
aI82490
aI90207
aI88946
aI82494
aI49727
aI49728
aI49730
aI49732
aI52939
aI82504
aI49737
aI82506
aI49743
aI79288
aI49746
aI91129
aI82517
aI49750
aI82523
aI82527
aI49761
aI82532
aI82533
aI49769
aI88494
aI73831
aI82540
aI49773
aI49783
aI49786
aI57450
aI46528
aI90219
aI82565
aI82568
aI73836
aI82570
aI49804
aI73837
aI49812
aI73838
aI82583
aI49817
aI82587
aI87185
aI79301
aI82593
aI82596
aI79302
aI49830
aI73841
aI49832
aI82601
aI82603
aI82604
aI73674
aI82609
aI82610
aI82613
aI82614
aI82617
aI82618
aI82619
aI46538
aI49855
aI82626
aI49859
aI57462
aI82630
aI49865
aI82634
aI90231
aI82637
aI49870
aI49871
aI49872
aI82641
aI49874
aI82643
aI82646
aI37668
aI82650
aI49883
aI49884
aI82654
aI49888
aI49890
aI82659
aI49892
aI82663
aI66205
aI82670
aI49904
aI82674
aI46547
aI82676
aI82680
aI82681
aI49914
aI49915
aI49920
aI49921
aI82690
aI49927
aI82698
aI82703
aI82706
aI49942
aI49946
aI68222
aI82718
aI90245
aI49952
aI82723
aI82724
aI49960
aI49962
aI7534
aI49970
aI17203
aI82740
aI17206
aI17209
aI17210
aI82747
aI49982
aI73867
aI17221
aI82759
aI56221
aI73868
aI82762
aI17227
aI49996
aI82766
aI82767
aI17232
aI79151
aI17238
aI50008
aI82777
aI17242
aI72347
aI93733
aI17246
aI90586
aI41104
aI17251
aI50020
aI17254
aI17255
aI82792
aI75184
aI17258
aI17259
aI17261
aI17262
aI82799
aI82800
aI50033
aI17266
aI93003
aI17271
aI17272
aI34400
aI50042
aI17275
aI17276
aI17279
aI17281
aI17282
aI46571
aI17284
aI50053
aI82823
aI17288
aI41111
aI82954
aI17294
aI50065
aI50066
aI50067
aI17300
aI17302
aI90265
aI50073
aI50074
aI17307
aI41114
aI17310
aI82851
aI72591
aI17318
aI71500
aI17321
aI82858
aI17323
aI17324
aI50093
aI17331
aI82868
aI50101
aI58163
aI82871
aI50104
aI50105
aI17338
aI17340
aI50109
aI17343
aI50115
aI82884
aI50117
aI17360
aI50129
aI17362
aI73891
aI17366
aI50135
aI17368
aI50137
aI17371
aI17372
aI66947
aI57509
aI17377
aI50146
aI17379
aI73894
aI50151
aI61682
aI57511
aI82924
aI17389
aI43133
aI50160
aI82929
aI17394
aI17396
aI50167
aI50168
aI82940
aI50173
aI17406
aI17407
aI82945
aI17411
aI17412
aI82949
aI17414
aI50183
aI82952
aI78050
aI17418
aI82957
aI50191
aI50197
aI50199
aI17432
aI17434
aI82972
aI17437
aI50207
aI82976
aI17441
aI50212
aI81028
aI17448
aI50217
aI50219
aI82989
aI82991
aI50224
aI50226
aI17459
aI17462
aI17466
aI71505
aI50239
aI83009
aI83010
aI17476
aI73910
aI17479
aI17480
aI84599
aI17484
aI17486
aI83025
aI50258
aI50259
aI48592
aI83029
aI17494
aI90297
aI50264
aI84836
aI17498
aI17499
aI90298
aI50270
aI83041
aI17506
aI90299
aI83046
aI50281
aI17514
aI17515
aI17516
aI17517
aI17518
aI50287
aI83057
aI50291
aI90056
aI17525
aI50294
aI80236
aI50298
aI57535
aI50301
aI17534
aI83071
aI57536
aI17538
aI17539
aI83076
aI17542
aI57537
aI83081
aI46615
aI17548
aI17550
aI17551
aI50322
aI17555
aI17557
aI50326
aI50327
aI17562
aI17563
aI17564
aI83101
aI17567
aI50336
aI83105
aI83106
aI79387
aI50340
aI17573
aI17576
aI17577
aI50346
aI57543
aI17580
aI63005
aI50352
aI17585
aI66239
aI17587
aI50356
aI46622
aI17590
aI17593
aI50362
aI17596
aI41162
aI17598
aI17599
aI17600
aI17603
aI17605
aI67145
aI17607
aI83144
aI50377
aI17610
aI17612
aI83150
aI50384
aI50385
aI50386
aI17620
aI90318
aI17630
aI41168
aI17634
aI17637
aI17638
aI17639
aI17640
aI17642
aI17645
aI83182
aI71652
aI88969
aI50417
aI83187
aI50422
aI50423
aI83192
aI17657
aI17661
aI17662
aI17664
aI83201
aI50435
aI50436
aI17669
aI17671
aI17673
aI17676
aI50446
aI41176
aI17682
aI50451
aI83220
aI83222
aI83223
aI50457
aI17690
aI50460
aI41178
aI17694
aI17695
aI83233
aI17698
aI50467
aI50470
aI50471
aI90332
aI83243
aI50478
aI90333
aI17712
aI17713
aI83250
aI50483
aI50484
aI50485
aI35721
aI17720
aI50489
aI93336
aI17723
aI17724
aI50494
aI46645
aI17730
aI17731
aI17733
aI83272
aI17737
aI17738
aI17740
aI50509
aI96355
aI17743
aI17744
aI83281
aI83282
aI50515
aI50517
aI17751
aI83288
aI17755
aI67150
aI83293
aI83295
aI17760
aI17764
aI50533
aI83303
aI17771
aI50541
aI83310
aI50543
aI17776
aI83313
aI17779
aI50548
aI83317
aI73961
aI17784
aI50784
aI83323
aI17789
aI17791
aI83332
aI17798
aI50568
aI50570
aI17803
aI17804
aI83342
aI17808
aI17810
aI17811
aI50581
aI17814
aI82076
aI83355
aI17820
aI50590
aI17825
aI79430
aI17830
aI83369
aI70426
aI50603
aI78243
aI17839
aI83376
aI17841
aI50610
aI83380
aI50613
aI17846
aI79433
aI17850
aI83387
aI83389
aI17855
aI50625
aI17858
aI17859
aI83398
aI83400
aI50633
aI17866
aI50635
aI17868
aI50638
aI50639
aI50640
aI83410
aI75883
aI17876
aI17877
aI74792
aI68516
aI83418
aI17883
aI90068
aI17885
aI17886
aI52133
aI50656
aI17889
aI17890
aI83427
aI17894
aI17895
aI50667
aI50668
aI17901
aI17904
aI17906
aI17907
aI83444
aI17909
aI81340
aI17916
aI83453
aI17920
aI73984
aI17922
aI92265
aI50695
aI17928
aI79447
aI17935
aI17936
aI50707
aI50708
aI17942
aI17943
aI17944
aI38787
aI17950
aI87888
aI83489
aI17954
aI83491
aI83492
aI94330
aI17960
aI17961
aI17963
aI17964
aI17965
aI17968
aI50741
aI17974
aI83512
aI50748
aI17982
aI50751
aI36606
aI61702
aI41227
aI50757
aI50758
aI46689
aI17993
aI50762
aI17996
aI17997
aI50769
aI18002
aI18003
aI18004
aI50773
aI50775
aI83545
aI18011
aI50781
aI18015
aI18016
aI83555
aI18020
aI18024
aI50793
aI18027
aI50797
aI52157
aI18035
aI50805
aI87891
aI18043
aI18044
aI50813
aI85709
aI18052
aI83589
aI50823
aI18057
aI50826
aI18059
aI18063
aI18064
aI18065
aI18067
aI50837
aI18071
aI83608
aI50843
aI50845
aI18078
aI50847
aI50848
aI50850
aI50857
aI18092
aI79474
aI50862
aI83633
aI83635
aI18101
aI83638
aI50871
aI45339
aI18107
aI18108
aI52170
aI91993
aI41248
aI83650
aI46710
aI18118
aI41249
aI38528
aI18121
aI18124
aI18125
aI18126
aI50895
aI82173
aI50897
aI18130
aI50899
aI79481
aI50904
aI18137
aI50908
aI83677
aI18142
aI50911
aI50912
aI67163
aI18148
aI83685
aI83686
aI79484
aI50922
aI84946
aI50930
aI79486
aI50934
aI18167
aI50936
aI18169
aI50938
aI18171
aI73653
aI90410
aI18174
aI50947
aI18180
aI50949
aI50950
aI50952
aI18185
aI18186
aI83724
aI50957
aI18192
aI50963
aI50965
aI50967
aI18200
aI50971
aI18204
aI50973
aI67165
aI18207
aI18209
aI18210
aI91170
aI68572
aI50987
aI18220
aI74034
aI50990
aI18223
aI18224
aI18225
aI36614
aI18228
aI50997
aI50998
aI50999
aI18234
aI51005
aI18238
aI51010
aI79499
aI18244
aI83781
aI68577
aI18248
aI80260
aI57655
aI52194
aI83790
aI51024
aI51026
aI18259
aI18260
aI79502
aI18263
aI52196
aI83806
aI91172
aI83809
aI18274
aI51043
aI51046
aI83815
aI18280
aI60788
aI68583
aI83821
aI83823
aI51056
aI51058
aI18294
aI18297
aI57663
aI83840
aI18305
aI51076
aI83846
aI18312
aI51081
aI41282
aI51086
aI51087
aI51095
aI18330
aI51099
aI18332
aI13978
aI18335
aI51104
aI51105
aI51106
aI18339
aI41286
aI51110
aI18344
aI18347
aI78081
aI83888
aI18355
aI18356
aI83894
aI18359
aI18361
aI18362
aI18365
aI18368
aI18370
aI74059
aI18374
aI18375
aI51144
aI57676
aI72791
aI83915
aI18380
aI18381
aI68262
aI51153
aI67171
aI97014
aI83931
aI51165
aI83934
aI80265
aI84987
aI45349
aI51174
aI83943
aI51176
aI83945
aI74919
aI68263
aI68605
aI51185
aI51186
aI51196
aI51197
aI56861
aI51205
aI83975
aI93360
aI52226
aI51216
aI83986
aI52227
aI79534
aI83993
aI83994
aI97178
aI84001
aI51237
aI51239
aI51240
aI84009
aI84010
aI84012
aI74077
aI84020
aI84023
aI51256
aI51257
aI90463
aI51260
aI51263
aI85003
aI41313
aI84044
aI84046
aI51279
aI51280
aI84052
aI52238
aI51287
aI57700
aI51290
aI84059
aI66027
aI61720
aI51298
aI51299
aI84071
aI56207
aI84077
aI84081
aI84082
aI84085
aI84087
aI51320
aI84089
aI84094
aI51328
aI51332
aI84105
aI51339
aI82453
aI51341
aI51344
aI84113
aI80271
aI90441
aI51351
aI51352
aI79556
aI51356
aI84125
aI51358
aI84127
aI84128
aI79558
aI51369
aI84138
aI84139
aI84143
aI51379
aI84150
aI84737
aI71265
aI51386
aI51387
aI84156
aI51390
aI57717
aI54680
aI75594
aI84167
aI51400
aI51401
aI47539
aI51415
aI84184
aI51420
aI51421
aI51424
aI84193
aI84195
aI74818
aI84199
aI51433
aI81365
aI51440
aI84212
aI51447
aI51450
aI84219
aI46806
aI74113
aI81366
aI84233
aI68653
aI51473
aI84243
aI51476
aI79577
aI84251
aI51486
aI51487
aI66091
aI51491
aI57734
aI51500
aI84269
aI51503
aI51504
aI51505
aI84276
aI51509
aI57737
aI51512
aI51513
aI83050
aI51519
aI46816
aI51530
aI51532
aI79586
aI78095
aI51538
aI51539
aI51540
aI57743
aI85050
aI84319
aI51553
aI51554
aI51555
aI79590
aI84326
aI51559
aI51560
aI84330
aI84331
aI84332
aI51566
aI85053
aI51569
aI51570
aI51571
aI84340
aI75914
aI51579
aI51584
aI51585
aI51586
aI89008
aI51588
aI78097
aI51597
aI74136
aI84370
aI51605
aI33361
aI74137
aI84376
aI51610
aI84379
aI51612
aI51613
aI51617
aI51618
aI51619
aI84388
aI46833
aI51624
aI84393
aI51628
aI74141
aI51632
aI51633
aI51634
aI74142
aI51638
aI51640
aI84410
aI51644
aI84413
aI51648
aI84417
aI68683
aI46838
aI51654
aI51656
aI51660
aI51661
aI84430
aI51665
aI51667
aI51668
aI84443
aI72644
aI85072
aI84451
aI84453
aI51687
aI51689
aI51690
aI79613
aI51697
aI51698
aI51699
aI84468
aI51702
aI84471
aI51711
aI51713
aI74155
aI84486
aI41388
aI52311
aI41807
aI51733
aI81375
aI51735
aI51737
aI84508
aI52314
aI51742
aI45368
aI84514
aI84515
aI84516
aI74161
aI90501
aI51753
aI79623
aI51756
aI51759
aI51760
aI51766
aI84537
aI84539
aI84543
aI51778
aI51779
aI84548
aI51781
aI51783
aI71210
aI51791
aI57784
aI84562
aI51795
aI84565
aI74169
aI51801
aI79195
aI79631
aI51808
aI84577
aI51810
aI51811
aI85094
aI84582
aI84584
aI84585
aI84588
aI84589
aI51822
aI51823
aI51824
aI84595
aI84596
aI84597
aI51831
aI84605
aI84606
aI96022
aI57793
aI84617
aI79639
aI51852
aI84621
aI84622
aI40615
aI84626
aI57795
aI51861
aI51862
aI51864
aI84635
aI69377
aI51869
aI26823
aI51873
aI96949
aI84650
aI84652
aI52338
aI51887
aI84659
aI84661
aI51895
aI78107
aI51898
aI79647
aI84668
aI51901
aI74187
aI51908
aI51909
aI84679
aI84681
aI51914
aI51915
aI63923
aI84686
aI51919
aI51920
aI51921
aI84690
aI41422
aI84695
aI84696
aI84699
aI84655
aI42101
aI51939
aI96801
aI51947
aI51948
aI51955
aI84724
aI52350
aI84728
aI74196
aI51962
aI83053
aI51967
aI84736
aI66107
aI84741
aI84742
aI51977
aI51978
aI51981
aI51982
aI51985
aI51986
aI84755
aI51988
aI93386
aI51994
aI51997
aI84766
aI84767
aI52002
aI52005
aI52008
aI52012
aI52016
aI84785
aI79667
aI84791
aI84801
aI52034
aI52041
aI84811
aI52046
aI92297
aI52059
aI52060
aI63290
aI52063
aI84832
aI84834
aI52068
aI96662
aI84839
aI52073
aI52075
aI52078
aI52080
aI52082
aI84855
aI66111
aI84862
aI79680
aI84866
aI52100
aI52374
aI52104
aI74220
aI84874
aI65596
aI52109
aI52114
aI84883
aI84885
aI52120
aI84889
aI52122
aI52123
aI84892
aI85147
aI61361
aI46918
aI74225
aI52136
aI84905
aI41458
aI52144
aI46920
aI84916
aI84917
aI66113
aI84919
aI19385
aI52155
aI46922
aI52158
aI84927
aI19393
aI79207
aI84932
aI74230
aI19399
aI52168
aI19402
aI84939
aI19404
aI84941
aI19409
aI52178
aI85155
aI52180
aI19413
aI84952
aI52185
aI52186
aI52188
aI84957
aI19422
aI96080
aI19426
aI19428
aI84966
aI79697
aI84968
aI19434
aI19440
aI52392
aI19443
aI52213
aI68777
aI8703
aI21379
aI52221
aI90624
aI19458
aI19459
aI84996
aI19463
aI52233
aI50840
aI42111
aI19470
aI85165
aI85008
aI19473
aI19474
aI52243
aI19476
aI19478
aI52249
aI71572
aI19483
aI52252
aI52253
aI52256
aI79707
aI41478
aI68785
aI52264
aI19497
aI52267
aI19500
aI19501
aI19503
aI85042
aI87129
aI72520
aI41481
aI52404
aI29019
aI85051
aI52285
aI68789
aI69391
aI85057
aI19522
aI19524
aI19526
aI52295
aI67209
aI19530
aI66118
aI52301
aI52303
aI52304
aI85074
aI85075
aI52309
aI19542
aI19543
aI19544
aI19546
aI41487
aI19549
aI85086
aI79717
aI85088
aI52323
aI67210
aI19563
aI52332
aI19567
aI88756
aI19570
aI74259
aI19572
aI19574
aI19576
aI85113
aI52346
aI19581
aI19582
aI85184
aI85122
aI19590
aI85127
aI52361
aI19594
aI57879
aI90125
aI52365
aI19599
aI52369
aI85138
aI85139
aI19605
aI19606
aI19607
aI52377
aI19610
aI19611
aI85761
aI19614
aI19615
aI19616
aI19617
aI74267
aI52389
aI19623
aI19624
aI19626
aI19627
aI63346
aI52398
aI79731
aI19636
aI52405
aI94299
aI52407
aI85176
aI46964
aI74327
aI68304
aI52426
aI19648
aI85186
aI85195
aI79734
aI19655
aI85192
aI19657
aI19658
aI52427
aI52428
aI52429
aI85200
aI19665
aI61758
aI52436
aI79737
aI4085
aI85209
aI52442
aI19675
aI63354
aI52446
aI52449
aI19682
aI52451
aI19684
aI19685
aI52454
aI85201
aI85224
aI52457
aI85226
aI52461
aI85234
aI19699
aI85236
aI52469
aI19703
aI52472
aI52473
aI52475
aI85244
aI52478
aI71927
aI68822
aI52486
aI52489
aI52490
aI52491
aI19725
aI19727
aI52497
aI19730
aI19731
aI19732
aI19734
aI52506
aI19740
aI19742
aI19743
aI85280
aI73175
aI52514
aI52516
aI52517
aI52520
aI19755
aI52524
aI74290
aI52528
aI19761
aI19763
aI19765
aI84675
aI19767
aI19768
aI19769
aI68831
aI19773
aI52545
aI19780
aI19784
aI85322
aI19788
aI52450
aI52559
aI57912
aI52564
aI19797
aI85335
aI19800
aI19803
aI19807
aI85344
aI63376
aI52578
aI52579
aI19813
aI52582
aI19817
aI85354
aI52588
aI52589
aI74301
aI85360
aI85361
aI52594
aI52595
aI52596
aI85366
aI85368
aI96148
aI19834
aI19836
aI19837
aI52606
aI19844
aI96150
aI52615
aI52616
aI19853
aI68311
aI19855
aI19856
aI85396
aI52629
aI19862
aI19863
aI19864
aI52633
aI93314
aI96154
aI19870
aI52640
aI71585
aI85411
aI19876
aI52646
aI19879
aI19880
aI85420
aI19886
aI52655
aI66909
aI85425
aI52658
aI85427
aI19892
aI19894
aI52663
aI85434
aI85435
aI85436
aI41546
aI69746
aI19903
aI19904
aI19905
aI19906
aI85443
aI85445
aI19911
aI19913
aI19914
aI52685
aI85456
aI74860
aI19923
aI52693
aI19927
aI52696
aI52699
aI19932
aI52707
aI19941
aI52710
aI52714
aI19947
aI85484
aI52718
aI85487
aI19953
aI19954
aI52723
aI19956
aI85493
aI52727
aI52728
aI85498
aI19963
aI19965
aI52734
aI85504
aI74326
aI85510
aI52743
aI85512
aI41559
aI52749
aI19983
aI19984
aI74328
aI19986
aI19988
aI19989
aI52759
aI85528
aI19993
aI19997
aI78136
aI97446
aI20001
aI20005
aI52777
aI52778
aI20011
aI52781
aI52782
aI41565
aI20016
aI20020
aI41566
aI20024
aI85561
aI45403
aI57951
aI85564
aI52799
aI20035
aI20036
aI20038
aI20039
aI20041
aI20042
aI20043
aI85580
aI52813
aI85582
aI20048
aI52817
aI52823
aI52824
aI20057
aI20058
aI85241
aI85597
aI20062
aI20063
aI52833
aI52834
aI85605
aI20070
aI68881
aI20073
aI85610
aI52843
aI20076
aI85614
aI85616
aI52850
aI85619
aI85620
aI20085
aI20087
aI85268
aI52858
aI52859
aI20095
aI52864
aI20097
aI20098
aI20099
aI20101
aI85638
aI63425
aI52872
aI74348
aI20106
aI20107
aI52876
aI20110
aI20113
aI87199
aI52885
aI20121
aI52890
aI85659
aI52892
aI52893
aI20127
aI52897
aI20132
aI47046
aI85670
aI20139
aI85676
aI41586
aI85680
aI20145
aI52914
aI94407
aI85685
aI96962
aI52919
aI20153
aI52922
aI20156
aI52925
aI20158
aI85700
aI90742
aI20166
aI20167
aI85704
aI52937
aI20170
aI20171
aI52941
aI85710
aI85711
aI52944
aI20177
aI20178
aI52947
aI85716
aI69413
aI85718
aI52951
aI20184
aI85724
aI52958
aI74869
aI20194
aI41595
aI85733
aI85734
aI79825
aI20203
aI52972
aI79826
aI85742
aI20207
aI20208
aI85746
aI20212
aI52981
aI20216
aI52985
aI52987
aI65756
aI85757
aI52990
aI85759
aI52993
aI20226
aI52523
aI20229
aI91677
aI20231
aI85769
aI63447
aI20236
aI85773
aI85774
aI94511
aI53011
aI53017
aI53019
aI20254
aI90757
aI53024
aI20257
aI53026
aI20259
aI41606
aI20265
aI67851
aI53035
aI85805
aI20270
aI85808
aI53041
aI20274
aI68915
aI20277
aI85814
aI53049
aI64783
aI57994
aI85301
aI85825
aI85826
aI74379
aI20293
aI20298
aI68919
aI20300
aI20301
aI85838
aI74381
aI93422
aI85842
aI53075
aI53076
aI53077
aI85846
aI20311
aI20312
aI20313
aI50545
aI20319
aI85856
aI53089
aI85859
aI20324
aI53094
aI90769
aI86876
aI20330
aI85867
aI90770
aI67585
aI63464
aI20338
aI53107
aI20342
aI20343
aI20345
aI85883
aI53116
aI20349
aI85889
aI20355
aI20356
aI85893
aI20358
aI53127
aI53128
aI53129
aI20363
aI53132
aI53133
aI53134
aI92008
aI20371
aI20372
aI20375
aI85912
aI86116
aI63471
aI53149
aI85918
aI20383
aI74395
aI85927
aI20392
aI74396
aI85930
aI53163
aI85932
aI53166
aI20399
aI76231
aI52552
aI20402
aI20404
aI53176
aI96591
aI20410
aI20411
aI20412
aI53181
aI53183
aI20417
aI20418
aI20419
aI96246
aI53190
aI90785
aI20424
aI20426
aI47095
aI85964
aI82843
aI20431
aI20433
aI90787
aI20436
aI53205
aI20438
aI85975
aI53208
aI53210
aI20445
aI20447
aI20449
aI94518
aI53220
aI20453
aI97246
aI20457
aI53227
aI53230
aI41817
aI20464
aI90792
aI53234
aI53236
aI86005
aI86006
aI90793
aI20473
aI20474
aI66411
aI86014
aI53247
aI86016
aI20481
aI53250
aI86020
aI87749
aI86023
aI20489
aI20491
aI53260
aI20495
aI20496
aI53267
aI20501
aI53270
aI86039
aI20504
aI53273
aI20507
aI53279
aI86051
aI53285
aI20518
aI90801
aI86058
aI20525
aI20526
aI53295
aI86064
aI20529
aI20532
aI20534
aI53304
aI20538
aI20539
aI20540
aI53310
aI86079
aI53312
aI20546
aI53315
aI20549
aI53321
aI53324
aI20557
aI86094
aI20559
aI53329
aI20563
aI86100
aI45421
aI86106
aI53339
aI53340
aI86109
aI86110
aI68335
aI53345
aI20578
aI53347
aI20580
aI20581
aI20582
aI86119
aI53352
aI20586
aI20588
aI20591
aI53360
aI86129
aI20594
aI86132
aI58046
aI20601
aI53370
aI20605
aI20606
aI82167
aI20608
aI53377
aI86147
aI20617
aI20619
aI20620
aI41666
aI86159
aI63512
aI53394
aI86163
aI53396
aI53397
aI53401
aI20634
aI20635
aI20637
aI20638
aI90821
aI86176
aI53411
aI74438
aI53414
aI20647
aI74439
aI53420
aI20655
aI53428
aI53429
aI20664
aI63519
aI20668
aI53437
aI33422
aI66156
aI20674
aI58059
aI47137
aI53448
aI20683
aI86220
aI53453
aI20686
aI53455
aI20688
aI20690
aI20691
aI53460
aI20694
aI53463
aI63524
aI53466
aI20701
aI53471
aI20704
aI53473
aI20707
aI20708
aI53479
aI85372
aI20715
aI52605
aI53488
aI68340
aI90836
aI86269
aI86272
aI53506
aI53507
aI86281
aI34181
aI90839
aI53516
aI53518
aI20751
aI20755
aI20757
aI20758
aI20759
aI20760
aI68996
aI84591
aI90842
aI86303
aI20768
aI63536
aI53538
aI53539
aI53541
aI86310
aI20776
aI53545
aI14386
aI94529
aI20784
aI68342
aI47155
aI20788
aI20791
aI20793
aI20795
aI20796
aI20797
aI47157
aI20800
aI53573
aI20808
aI53577
aI20810
aI44338
aI90850
aI20815
aI20818
aI74467
aI86356
aI86358
aI63545
aI20824
aI20825
aI86363
aI20828
aI20830
aI86367
aI53600
aI53601
aI63547
aI20836
aI20837
aI86374
aI86379
aI86382
aI53616
aI86388
aI63550
aI20854
aI90857
aI20857
aI53626
aI53627
aI20861
aI20862
aI94630
aI20865
aI20869
aI53640
aI74476
aI73489
aI52631
aI86412
aI20877
aI53646
aI20879
aI52632
aI20883
aI53654
aI53655
aI20888
aI20891
aI20892
aI20894
aI20896
aI20897
aI53667
aI20900
aI20903
aI53673
aI52838
aI20909
aI86448
aI20917
aI86454
aI86458
aI20923
aI96716
aI47178
aI20926
aI20927
aI20928
aI20929
aI53700
aI53702
aI20936
aI20937
aI20939
aI86480
aI86482
aI53716
aI53717
aI20950
aI20953
aI20954
aI20956
aI20958
aI20959
aI74491
aI53736
aI73582
aI52647
aI20972
aI86509
aI52648
aI20979
aI20980
aI86517
aI53751
aI91424
aI88957
aI63823
aI20989
aI86527
aI20993
aI53762
aI53763
aI53764
aI79958
aI75987
aI20999
aI21000
aI21001
aI86539
aI86543
aI92585
aI86545
aI53778
aI74499
aI21012
aI53781
aI96719
aI79961
aI41732
aI85423
aI86557
aI21022
aI41733
aI21026
aI74502
aI53799
aI86568
aI86570
aI53808
aI21043
aI21049
aI21051
aI53821
aI93423
aI86593
aI53826
aI86595
aI21060
aI21063
aI53833
aI21066
aI69047
aI53836
aI21069
aI79971
aI86612
aI21078
aI53847
aI21080
aI63588
aI86618
aI86619
aI86620
aI53853
aI21086
aI53856
aI83628
aI21093
aI21094
aI21097
aI86611
aI21099
aI21100
aI74514
aI86640
aI86642
aI41747
aI86645
aI53881
aI90853
aI53885
aI21119
aI21122
aI53892
aI41750
aI21126
aI53896
aI47212
aI21130
aI21131
aI21133
aI53903
aI86673
aI21140
aI21141
aI21142
aI21144
aI21145
aI21146
aI21147
aI86684
aI21149
aI83630
aI21152
aI79984
aI21155
aI21156
aI53925
aI21158
aI74524
aI53930
aI85447
aI53932
aI86701
aI21166
aI86705
aI78175
aI86707
aI21172
aI53942
aI53944
aI21178
aI21179
aI53948
aI85450
aI53950
aI63605
aI53952
aI86721
aI53954
aI21187
aI86724
aI53957
aI74529
aI21192
aI21194
aI53963
aI21198
aI85453
aI83472
aI21203
aI86740
aI53973
aI21211
aI86748
aI7253
aI53983
aI21216
aI21221
aI21222
aI21225
aI86763
aI21228
aI21229
aI53998
aI53999
aI85459
aI21236
aI21237
aI54006
aI21239
aI86776
aI66175
aI54013
aI21247
aI54016
aI86786
aI21251
aI86788
aI54021
aI21254
aI41772
aI52695
aI54031
aI21264
aI86801
aI21266
aI21267
aI90926
aI21270
aI86807
aI21273
aI86810
aI86812
aI21277
aI21278
aI21279
aI36315
aI71632
aI21286
aI86908
aI54058
aI54060
aI54061
aI21295
aI41779
aI36318
aI96393
aI86841
aI86842
aI86844
aI21309
aI21310
aI69088
aI54082
aI54083
aI86855
aI54088
aI86857
aI69451
aI21326
aI42173
aI54098
aI85475
aI21332
aI54101
aI21334
aI58169
aI21336
aI21337
aI63631
aI21340
aI54109
aI21343
aI54113
aI54114
aI41787
aI21348
aI88191
aI54125
aI21361
aI96403
aI66179
aI58174
aI54134
aI69097
aI56359
aI21370
aI21371
aI54140
aI21373
aI21374
aI21375
aI90944
aI52715
aI44357
aI96407
aI86927
aI54160
aI86930
aI54164
aI85486
aI90185
aI54167
aI54169
aI86938
aI77629
aI21407
aI21409
aI21411
aI21413
aI21414
aI21415
aI54185
aI21420
aI54189
aI47261
aI21426
aI21429
aI54198
aI21431
aI86969
aI54202
aI21435
aI54204
aI86978
aI74571
aI21444
aI86981
aI21446
aI54216
aI54217
aI86986
aI85495
aI47266
aI54224
aI21457
aI21458
aI86996
aI80036
aI54234
aI54235
aI21468
aI54237
aI54238
aI54239
aI21473
aI52731
aI21479
aI54248
aI21481
aI21483
aI54253
aI21486
aI87023
aI96424
aI87026
aI21494
aI21496
aI21497
aI21498
aI21500
aI54269
aI21504
aI21509
aI87047
aI21513
aI54284
aI21517
aI91361
aI21523
aI54293
aI21527
aI21528
aI87066
aI21533
aI87070
aI90270
aI21536
aI21538
aI87078
aI96433
aI66185
aI21546
aI87085
aI87086
aI74589
aI21552
aI21555
aI21558
aI21559
aI21561
aI87098
aI21565
aI54334
aI21567
aI21568
aI21569
aI52747
aI21572
aI54342
aI54345
aI21578
aI63671
aI21581
aI21586
aI87123
aI87126
aI21591
aI82081
aI54362
aI87131
aI21599
aI87136
aI21602
aI87141
aI21606
aI21607
aI87144
aI87145
aI21610
aI21611
aI21612
aI54381
aI87150
aI87151
aI54385
aI21618
aI61823
aI87156
aI54391
aI21624
aI54394
aI54395
aI21628
aI87165
aI54398
aI63429
aI21633
aI74603
aI21636
aI87173
aI21638
aI21640
aI41836
aI87178
aI21643
aI71644
aI54415
aI83315
aI21650
aI80067
aI54420
aI21653
aI52761
aI21656
aI82640
aI54427
aI21663
aI87200
aI87201
aI54435
aI21668
aI87205
aI54438
aI41841
aI54443
aI87212
aI21678
aI69149
aI54449
aI21682
aI87221
aI21686
aI21687
aI54458
aI69151
aI54460
aI54461
aI21694
aI54465
aI87235
aI54468
aI21702
aI21704
aI54474
aI21707
aI61510
aI21710
aI63693
aI21712
aI87249
aI87250
aI87251
aI21716
aI54485
aI54486
aI87257
aI87259
aI54495
aI21730
aI74619
aI21732
aI21734
aI21735
aI21736
aI21737
aI21739
aI54508
aI21741
aI21743
aI21746
aI54516
aI21749
aI21750
aI21751
aI21752
aI80084
aI54524
aI54525
aI54529
aI21763
aI21764
aI54533
aI21766
aI54535
aI21769
aI63703
aI21772
aI21773
aI87310
aI54543
aI87312
aI33459
aI21783
aI54559
aI52784
aI54562
aI96475
aI54567
aI54568
aI87337
aI21802
aI21804
aI21805
aI21806
aI80093
aI87348
aI47326
aI87350
aI21815
aI21816
aI87353
aI21818
aI47327
aI54590
aI21825
aI37825
aI54595
aI21828
aI21829
aI21835
aI21841
aI87378
aI87383
aI63716
aI54618
aI54619
aI21852
aI85562
aI87390
aI74640
aI87394
aI87398
aI87400
aI54634
aI21867
aI21869
aI21871
aI54641
aI21874
aI21875
aI23642
aI87415
aI72743
aI87419
aI21885
aI87423
aI87424
aI87425
aI21890
aI21891
aI21892
aI21893
aI21894
aI87431
aI21896
aI21897
aI21898
aI74647
aI21900
aI87438
aI21907
aI21908
aI81473
aI74649
aI21912
aI54681
aI54682
aI21915
aI54684
aI87454
aI21920
aI54690
aI74651
aI21926
aI47345
aI87465
aI85575
aI54700
aI21934
aI21936
aI87473
aI21938
aI54709
aI21942
aI54712
aI21946
aI21950
aI21951
aI21952
aI54721
aI85839
aI52811
aI54724
aI54725
aI87494
aI97256
aI54729
aI21962
aI54731
aI21964
aI54733
aI87502
aI87503
aI21968
aI54738
aI21972
aI54741
aI21974
aI14585
aI54744
aI54748
aI47354
aI54751
aI21985
aI54754
aI21987
aI54757
aI87526
aI54760
aI21993
aI21995
aI54766
aI21999
aI22000
aI87538
aI54771
aI87540
aI22005
aI54777
aI54780
aI22013
aI22014
aI22020
aI22021
aI87558
aI54791
aI87560
aI54795
aI90206
aI54797
aI87566
aI22031
aI54801
aI54803
aI88024
aI87574
aI54807
aI22041
aI87580
aI22045
aI22046
aI85036
aI54820
aI80134
aI41905
aI22059
aI22062
aI22066
aI87603
aI54836
aI87605
aI22070
aI87607
aI22072
aI22073
aI54843
aI54844
aI58293
aI22080
aI87618
aI63755
aI87620
aI22087
aI22090
aI87627
aI54863
aI87633
aI54866
aI22099
aI54868
aI22105
aI30991
aI22111
aI22112
aI22113
aI22116
aI54885
aI54886
aI22119
aI54888
aI87657
aI54891
aI22125
aI22126
aI54896
aI54897
aI74686
aI22135
aI22137
aI9151
aI17387
aI22141
aI87678
aI22144
aI54913
aI93604
aI54915
aI85612
aI22155
aI22157
aI22160
aI96536
aI22162
aI22164
aI22168
aI41924
aI87707
aI66206
aI41925
aI87712
aI87713
aI22179
aI87717
aI22185
aI22186
aI54955
aI79300
aI22189
aI22191
aI85847
aI93485
aI87734
aI54967
aI22200
aI54970
aI22204
aI41930
aI22206
aI54975
aI54976
aI96544
aI54979
aI22212
aI22213
aI22214
aI96545
aI54984
aI22218
aI80162
aI22223
aI87760
aI63779
aI22229
aI22231
aI22232
aI22235
aI87772
aI55006
aI22239
aI87776
aI72755
aI87779
aI22245
aI55016
aI55019
aI55020
aI22253
aI87790
aI22255
aI55025
aI87794
aI87795
aI55029
aI83667
aI55032
aI22267
aI87806
aI47660
aI85632
aI55044
aI87815
aI55049
aI22283
aI87821
aI55055
aI86010
aI74712
aI36483
aI55061
aI88361
aI75317
aI47407
aI22301
aI22302
aI55071
aI22304
aI96560
aI22306
aI55075
aI55076
aI22309
aI22310
aI53117
aI22316
aI47410
aI55086
aI22319
aI55088
aI92398
aI55090
aI47411
aI87860
aI22327
aI87864
aI80180
aI55099
aI22332
aI87869
aI55102
aI22335
aI55104
aI22338
aI85643
aI55108
aI87877
aI22343
aI87880
aI55113
aI54923
aI63799
aI22348
aI22350
aI36493
aI22352
aI22353
aI22355
aI47067
aI87893
aI22358
aI90217
aI22360
aI74724
aI55131
aI55133
aI22366
aI22367
aI79306
aI79038
aI87906
aI22371
aI22372
aI55142
aI55143
aI87912
aI80188
aI22378
aI41959
aI76033
aI22382
aI87921
aI55155
aI87924
aI22389
aI87928
aI87929
aI87930
aI22395
aI87932
aI22399
aI78216
aI55173
aI22406
aI22408
aI22409
aI55179
aI83672
aI22413
aI55183
aI22418
aI96579
aI87958
aI69273
aI96580
aI88037
aI87965
aI22430
aI47429
aI74736
aI85855
aI87975
aI22440
aI24752
aI87980
aI91311
aI22447
aI87984
aI22449
aI41971
aI22454
aI46575
aI22458
aI22459
aI87998
aI69281
aI88008
aI63820
aI74945
aI22478
aI22480
aI22487
aI22488
aI85668
aI22490
aI47439
aI88030
aI22495
aI88032
aI93495
aI22498
aI22501
aI22502
aI22503
aI22504
aI88043
aI22508
aI22509
aI22511
aI88048
aI22513
aI88051
aI22516
aI88053
aI22519
aI22520
aI96596
aI22522
aI88059
aI22525
aI22526
aI22527
aI22529
aI88066
aI22533
aI22534
aI67243
aI41986
aI85677
aI88080
aI96600
aI22546
aI88083
aI88084
aI22549
aI22550
aI22551
aI78221
aI22555
aI22560
aI22562
aI96603
aI88100
aI88104
aI88105
aI88114
aI22582
aI22583
aI22584
aI88124
aI22590
aI22591
aI22592
aI80224
aI22598
aI88136
aI91150
aI22605
aI96772
aI63446
aI88149
aI22614
aI22615
aI22618
aI22619
aI88156
aI22621
aI22624
aI88161
aI22626
aI22628
aI88165
aI22631
aI88168
aI88169
aI22636
aI22639
aI22642
aI88179
aI22644
aI52926
aI22846
aI22648
aI22652
aI22654
aI22655
aI88193
aI22659
aI22660
aI74774
aI22663
aI88200
aI47468
aI22666
aI22668
aI22672
aI69496
aI22674
aI22684
aI91162
aI22686
aI22688
aI22690
aI22692
aI22693
aI96625
aI96775
aI42012
aI88234
aI52935
aI88236
aI22701
aI22703
aI88242
aI93502
aI88244
aI83682
aI22715
aI22716
aI52938
aI22718
aI22719
aI22720
aI22723
aI63862
aI22727
aI22728
aI70589
aI80247
aI22733
aI22735
aI47480
aI22742
aI22743
aI88280
aI22745
aI88284
aI22752
aI91151
aI42022
aI22763
aI22764
aI63869
aI22768
aI22769
aI22772
aI22773
aI22774
aI88314
aI22781
aI88320
aI63872
aI88049
aI22791
aI88334
aI88336
aI85720
aI33493
aI22803
aI58414
aI22807
aI47492
aI88346
aI47678
aI22812
aI88350
aI22815
aI96779
aI9264
aI22818
aI22819
aI88356
aI22821
aI22822
aI22825
aI88362
aI22827
aI22830
aI22833
aI88372
aI22839
aI88379
aI22844
aI88381
aI66274
aI4034
aI22850
aI61864
aI22852
aI81768
aI22857
aI88394
aI22859
aI22860
aI22863
aI22869
aI88407
aI88409
aI22875
aI22876
aI22877
aI22878
aI88416
aI88417
aI22884
aI22885
aI80273
aI88425
aI50954
aI85735
aI22892
aI22893
aI88430
aI74813
aI84387
aI91198
aI69353
aI22904
aI88441
aI88442
aI88446
aI47509
aI88448
aI22916
aI88453
aI22918
aI74817
aI22920
aI85740
aI22922
aI66231
aI22926
aI88463
aI22931
aI22934
aI47513
aI88473
aI22944
aI22947
aI22949
aI88486
aI88489
aI22954
aI88493
aI22958
aI22961
aI22966
aI22967
aI88505
aI70597
aI22971
aI88510
aI68415
aI93511
aI22980
aI88517
aI88520
aI73871
aI22989
aI88526
aI22991
aI85752
aI47523
aI88534
aI22999
aI23001
aI23003
aI88540
aI23005
aI23010
aI23013
aI88551
aI88552
aI85756
aI96679
aI88556
aI23022
aI23026
aI88564
aI23029
aI23032
aI23033
aI23035
aI88572
aI23037
aI23038
aI88577
aI88580
aI23045
aI91331
aI23047
aI88584
aI88585
aI88586
aI88587
aI88588
aI85762
aI63917
aI14766
aI23063
aI96687
aI74842
aI36613
aI80304
aI23075
aI88612
aI23077
aI88614
aI65145
aI88616
aI56416
aI88618
aI82206
aI23089
aI23091
aI44414
aI94606
aI23095
aI23099
aI88639
aI23107
aI74849
aI23113
aI91234
aI23120
aI74851
aI85878
aI23126
aI88663
aI88665
aI36623
aI23137
aI23138
aI88675
aI75580
aI88678
aI88679
aI69557
aI23147
aI23149
aI96966
aI74856
aI36627
aI23157
aI23165
aI88702
aI47552
aI23170
aI23171
aI23173
aI96791
aI23177
aI23178
aI88715
aI88717
aI23182
aI79431
aI23185
aI23187
aI23190
aI69401
aI83698
aI23196
aI88734
aI88736
aI91248
aI72787
aI23203
aI88740
aI23205
aI88063
aI36636
aI23210
aI88747
aI88748
aI23213
aI88750
aI88752
aI88753
aI23219
aI23220
aI69406
aI23222
aI23226
aI69407
aI73879
aI23229
aI23230
aI23231
aI23234
aI50128
aI88774
aI23239
aI23240
aI88777
aI23243
aI23244
aI23245
aI23246
aI80333
aI23248
aI88785
aI53027
aI88788
aI23255
aI88792
aI23257
aI23258
aI23259
aI23260
aI23261
aI72789
aI23263
aI23266
aI23267
aI88804
aI69414
aI88807
aI36647
aI23277
aI23279
aI88817
aI23285
aI85801
aI88824
aI14960
aI23291
aI88829
aI23297
aI23300
aI63958
aI23302
aI88840
aI23305
aI23309
aI23312
aI88849
aI74883
aI23316
aI85806
aI23319
aI23322
aI23326
aI88868
aI88869
aI88870
aI88873
aI23338
aI23339
aI90282
aI36658
aI91272
aI88884
aI23352
aI23353
aI80351
aI88892
aI23371
aI23374
aI58509
aI23377
aI23380
aI23382
aI47588
aI23388
aI88926
aI23392
aI23394
aI65623
aI18237
aI23399
aI23400
aI36668
aI88941
aI88942
aI23407
aI23409
aI90252
aI23412
aI66496
aI23414
aI56184
aI23421
aI88958
aI23423
aI56193
aI56194
aI80363
aI88964
aI69441
aI63980
aI88970
aI79296
aI23439
aI23442
aI23443
aI56212
aI23447
aI23449
aI47599
aI42138
aI56222
aI23457
aI23460
aI88997
aI55074
aI56231
aI56236
aI47602
aI56238
aI80681
aI89009
aI56242
aI89011
aI23477
aI89016
aI61885
aI89020
aI36682
aI56254
aI89024
aI23489
aI36683
aI23492
aI56263
aI23498
aI91298
aI85837
aI23504
aI23505
aI69770
aI56277
aI56279
aI23513
aI23514
aI56283
aI23518
aI56288
aI96763
aI91302
aI86137
aI65160
aI42151
aI56301
aI23534
aI23535
aI56304
aI56305
aI88074
aI69459
aI23541
aI56310
aI58537
aI23544
aI23545
aI56314
aI23549
aI85845
aI56320
aI23553
aI23554
aI74981
aI36694
aI56329
aI56330
aI23563
aI96770
aI23569
aI56338
aI69526
aI85849
aI56345
aI23579
aI23580
aI69466
aI56350
aI23583
aI80390
aI56358
aI23591
aI23593
aI64007
aI85853
aI23602
aI23605
aI47625
aI56376
aI56377
aI23610
aI50978
aI56381
aI56382
aI42165
aI80395
aI56388
aI56390
aI23623
aI56394
aI56395
aI88077
aI23629
aI23630
aI47629
aI23632
aI74936
aI56405
aI42169
aI23641
aI56410
aI23644
aI32891
aI23651
aI56421
aI56425
aI56428
aI23663
aI56432
aI23665
aI56435
aI56439
aI8426
aI56442
aI91327
aI56444
aI56446
aI56448
aI23682
aI36715
aI56453
aI56455
aI23688
aI23691
aI23693
aI36717
aI23696
aI80408
aI23699
aI56470
aI23707
aI23711
aI64075
aI80411
aI23717
aI23718
aI23727
aI23729
aI56499
aI23733
aI23737
aI47647
aI91339
aI56517
aI64033
aI23752
aI23753
aI56524
aI23758
aI56528
aI23761
aI56530
aI23764
aI41163
aI82647
aI75622
aI56540
aI23774
aI23776
aI23778
aI23780
aI56554
aI96807
aI36733
aI23793
aI23794
aI56564
aI56566
aI56567
aI23800
aI56569
aI23802
aI69503
aI56572
aI46620
aI56575
aI23808
aI56578
aI23812
aI56581
aI56582
aI56583
aI56584
aI23817
aI23820
aI56594
aI53123
aI23828
aI23829
aI23831
aI23832
aI85892
aI23834
aI23835
aI23836
aI56609
aI23842
aI53126
aI23846
aI67353
aI64050
aI94872
aI66262
aI23857
aI56626
aI47667
aI56629
aI56631
aI23864
aI56633
aI23868
aI94253
aI64053
aI56645
aI42209
aI23881
aI56650
aI23885
aI72173
aI23887
aI48805
aI56660
aI56665
aI83739
aI56667
aI56668
aI23903
aI96827
aI77847
aI56678
aI23912
aI23913
aI23914
aI23917
aI56688
aI56689
aI56690
aI23924
aI23925
aI42217
aI53140
aI56698
aI23932
aI74986
aI56703
aI23936
aI93543
aI71653
aI36758
aI23944
aI23946
aI23947
aI56718
aI23951
aI56720
aI56721
aI56725
aI56726
aI69529
aI23963
aI23964
aI69530
aI23967
aI23969
aI23971
aI93411
aI23976
aI42226
aI72813
aI23986
aI91379
aI54264
aI23990
aI23991
aI78284
aI56766
aI56768
aI14923
aI56773
aI24008
aI56778
aI45114
aI38989
aI56783
aI56786
aI24019
aI56788
aI56789
aI24023
aI24024
aI94637
aI24027
aI93560
aI24035
aI94899
aI56809
aI24043
aI85928
aI24056
aI64084
aI50993
aI24062
aI64085
aI24064
aI24065
aI31318
aI24070
aI56839
aI24073
aI56842
aI56843
aI96821
aI24081
aI24083
aI24086
aI24089
aI69551
aI24093
aI24095
aI24096
aI56865
aI64091
aI85938
aI24110
aI96861
aI75016
aI24114
aI24116
aI56885
aI43357
aI56888
aI56890
aI96863
aI24125
aI56894
aI24127
aI24128
aI24130
aI56901
aI24134
aI56903
aI24137
aI24138
aI24141
aI56910
aI85944
aI24149
aI24154
aI24157
aI82639
aI96869
aI75024
aI56931
aI24166
aI56935
aI85948
aI56938
aI56939
aI24172
aI56942
aI24175
aI56944
aI24177
aI56948
aI24182
aI24183
aI85951
aI24188
aI24193
aI24194
aI24195
aI24196
aI24197
aI24198
aI24201
aI56971
aI24205
aI65674
aI24208
aI75032
aI56978
aI56981
aI56985
aI56987
aI24222
aI56991
aI24225
aI24226
aI42267
aI97509
aI24232
aI57001
aI24234
aI69548
aI53192
aI57017
aI24251
aI80501
aI57024
aI42272
aI24258
aI36811
aI57030
aI24263
aI57034
aI57037
aI85965
aI92463
aI24274
aI36814
aI57046
aI24279
aI24280
aI24281
aI57051
aI24285
aI57054
aI75045
aI24289
aI57058
aI24292
aI53201
aI57070
aI24304
aI42280
aI24311
aI24313
aI57087
aI57089
aI24322
aI57091
aI24324
aI80513
aI24328
aI93556
aI57098
aI69591
aI57100
aI42273
aI57103
aI57106
aI57109
aI57111
aI24345
aI91439
aI85706
aI24349
aI57118
aI24353
aI24354
aI57124
aI24358
aI24359
aI24363
aI88197
aI85981
aI24369
aI24371
aI24373
aI24375
aI24376
aI24379
aI57149
aI24382
aI24384
aI24385
aI24386
aI24387
aI84829
aI57161
aI24398
aI24403
aI24404
aI24407
aI85270
aI24417
aI24418
aI57188
aI24424
aI24425
aI24429
aI24430
aI24431
aI24433
aI24434
aI24435
aI24439
aI57210
aI57211
aI24444
aI57213
aI57216
aI57217
aI57219
aI24455
aI24456
aI57228
aI42306
aI57231
aI47768
aI24466
aI57235
aI36846
aI57241
aI24474
aI25363
aI57244
aI24477
aI86000
aI24483
aI57252
aI57253
aI24489
aI24490
aI24495
aI24497
aI90034
aI57267
aI24500
aI90038
aI57271
aI24505
aI67158
aI57279
aI24512
aI57283
aI57284
aI57287
aI57288
aI90057
aI56464
aI24525
aI24528
aI90065
aI57300
aI75086
aI24534
aI24535
aI90072
aI24537
aI24541
aI24542
aI24544
aI90081
aI57314
aI57315
aI57316
aI90085
aI73923
aI81561
aI24553
aI24555
aI57324
aI24557
aI24558
aI69629
aI79379
aI42323
aI57332
aI90102
aI96937
aI24568
aI57338
aI24575
aI31403
aI34643
aI42326
aI53249
aI80556
aI24587
aI24588
aI24589
aI47789
aI90128
aI57362
aI57364
aI57365
aI24599
aI57368
aI57370
aI57371
aI90144
aI85533
aI24612
aI57381
aI90151
aI24617
aI24618
aI24619
aI54285
aI24621
aI57390
aI42333
aI57392
aI90162
aI24627
aI90164
aI53257
aI90168
aI90169
aI75103
aI57405
aI57406
aI47797
aI90293
aI24643
aI57412
aI91489
aI24649
aI24650
aI90187
aI24653
aI47800
aI57427
aI57434
aI57435
aI24670
aI57439
aI57440
aI90210
aI24675
aI90214
aI37920
aI57449
aI24682
aI57451
aI57454
aI24687
aI24688
aI57457
aI90226
aI76110
aI24694
aI75113
aI24697
aI57466
aI57469
aI90241
aI57474
aI71746
aI24709
aI57478
aI24711
aI90248
aI90250
aI69655
aI24716
aI24717
aI75117
aI24720
aI57489
aI47811
aI24724
aI88431
aI24728
aI57497
aI24731
aI57502
aI90272
aI90274
aI57507
aI90276
aI24741
aI36831
aI24743
aI57512
aI69660
aI57514
aI24747
aI24749
aI51016
aI24755
aI24756
aI82827
aI24758
aI24759
aI57528
aI24761
aI57530
aI86047
aI24764
aI57534
aI42357
aI24768
aI24769
aI47819
aI57540
aI24773
aI24775
aI94662
aI75127
aI90316
aI24782
aI80589
aI75128
aI90323
aI90324
aI90325
aI24790
aI90328
aI24794
aI57564
aI75130
aI24798
aI69669
aI24800
aI24802
aI57572
aI57574
aI57575
aI24812
aI90350
aI24816
aI90355
aI24820
aI42366
aI57590
aI24823
aI90360
aI24826
aI24827
aI90365
aI24831
aI24832
aI24833
aI90373
aI58657
aI24846
aI53293
aI57619
aI57621
aI24855
aI57626
aI57628
aI65851
aI24863
aI90400
aI53296
aI35744
aI57636
aI57637
aI24870
aI24871
aI90409
aI57642
aI24875
aI90412
aI69682
aI80605
aI9608
aI90418
aI24884
aI24885
aI90422
aI50139
aI90424
aI69684
aI90426
aI24895
aI24896
aI24897
aI90434
aI93575
aI24901
aI57670
aI57672
aI57673
aI24906
aI24908
aI90445
aI57681
aI24914
aI57687
aI90457
aI24924
aI57693
aI64229
aI24929
aI90466
aI90467
aI24932
aI96998
aI24935
aI80615
aI24940
aI24943
aI90481
aI90482
aI24947
aI24948
aI36926
aI90486
aI24951
aI90491
aI69572
aI24958
aI57728
aI24961
aI24963
aI24964
aI57733
aI24966
aI24968
aI57570
aI24970
aI24971
aI90509
aI57742
aI24975
aI90512
aI90513
aI24978
aI24979
aI57749
aI74799
aI90521
aI90524
aI57757
aI24990
aI24991
aI75163
aI77636
aI57765
aI90534
aI80625
aI90536
aI57769
aI90541
aI57774
aI57775
aI90544
aI90548
aI25013
aI57783
aI25016
aI57785
aI25022
aI25025
aI25027
aI25029
aI25030
aI25031
aI75451
aI47752
aI47863
aI25038
aI53325
aI97016
aI57810
aI57811
aI25044
aI69575
aI57815
aI25048
aI42404
aI57818
aI25051
aI57820
aI47866
aI25055
aI57825
aI25058
aI57828
aI25064
aI57833
aI90603
aI4178
aI90608
aI53331
aI25079
aI69716
aI25084
aI25085
aI25087
aI57856
aI57858
aI25091
aI25092
aI25093
aI66289
aI57865
aI71759
aI25099
aI75018
aI90637
aI57870
aI57872
aI25105
aI57874
aI25111
aI25112
aI90649
aI25114
aI75183
aI25116
aI69722
aI57886
aI25119
aI57889
aI25124
aI25125
aI91569
aI25129
aI25263
aI25134
aI25135
aI90672
aI25137
aI25138
aI57907
aI90677
aI90678
aI64265
aI25144
aI57913
aI77637
aI25147
aI25148
aI25149
aI25150
aI65214
aI25153
aI25154
aI80651
aI57924
aI88128
aI57931
aI25164
aI53346
aI57936
aI97038
aI25174
aI90712
aI69732
aI25178
aI57947
aI25182
aI36965
aI90720
aI69734
aI90949
aI80256
aI25195
aI25196
aI25199
aI65635
aI25201
aI25202
aI57973
aI75059
aI90743
aI57976
aI57977
aI57978
aI90747
aI65216
aI90751
aI25216
aI25217
aI96859
aI25219
aI25220
aI25221
aI90758
aI75201
aI90761
aI25226
aI25233
aI25234
aI25237
aI90774
aI58007
aI25240
aI58009
aI25242
aI25243
aI97050
aI25246
aI58017
aI25250
aI25251
aI90788
aI28119
aI58024
aI80668
aI25261
aI58030
aI80669
aI90800
aI25265
aI90802
aI90803
aI90804
aI90806
aI90808
aI90809
aI25278
aI25282
aI58051
aI58052
aI69750
aI25291
aI58064
aI90833
aI48852
aI58069
aI58070
aI36985
aI90841
aI25306
aI58075
aI25308
aI90849
aI25314
aI25315
aI58084
aI58085
aI90854
aI25319
aI69756
aI58090
aI90860
aI70040
aI58096
aI25329
aI91603
aI86142
aI47913
aI90874
aI25340
aI25341
aI25342
aI91605
aI25345
aI90882
aI90884
aI58119
aI85058
aI90889
aI25355
aI58124
aI58125
aI90895
aI90897
aI58131
aI90900
aI97070
aI58134
aI90903
aI90905
aI90906
aI47919
aI25375
aI25376
aI58146
aI75227
aI58148
aI58150
aI90919
aI90922
aI25390
aI91613
aI25392
aI25393
aI25395
aI25396
aI90934
aI96969
aI25401
aI90938
aI25403
aI90940
aI25405
aI25406
aI97077
aI25408
aI90945
aI25412
aI58181
aI90950
aI58183
aI58188
aI58189
aI37005
aI58195
aI69774
aI75236
aI53391
aI58207
aI90977
aI58213
aI91623
aI20626
aI58227
aI90996
aI47934
aI58230
aI57126
aI97087
aI91005
aI58241
aI58243
aI37014
aI82683
aI91016
aI91020
aI97090
aI58254
aI9709
aI58256
aI69784
aI71818
aI80707
aI91030
aI47940
aI91036
aI58270
aI80709
aI87896
aI91053
aI58287
aI93303
aI42483
aI87049
aI53406
aI91062
aI58295
aI69791
aI58300
aI51042
aI69792
aI91074
aI58307
aI88141
aI58322
aI58328
aI91099
aI91100
aI73930
aI91106
aI91107
aI91108
aI86182
aI58342
aI64337
aI58346
aI58347
aI91117
aI45588
aI58351
aI91120
aI91121
aI58356
aI64340
aI58362
aI83778
aI91134
aI57591
aI58368
aI91141
aI91142
aI58379
aI42498
aI58382
aI58383
aI58384
aI58385
aI91156
aI58389
aI96942
aI58394
aI53423
aI80730
aI91653
aI58402
aI58404
aI91173
aI88144
aI87053
aI44499
aI91183
aI58417
aI58418
aI58421
aI58423
aI58424
aI91193
aI42506
aI58430
aI58432
aI91205
aI58440
aI91209
aI91210
aI37047
aI91216
aI76113
aI58451
aI58452
aI58454
aI58456
aI91225
aI91226
aI91227
aI91228
aI91229
aI91231
aI58464
aI58465
aI58466
aI58479
aI58480
aI91667
aI83134
aI91254
aI91255
aI91259
aI58492
aI75285
aI91267
aI91271
aI69598
aI75287
aI53442
aI91278
aI64365
aI58513
aI91284
aI91285
aI75289
aI91288
aI91292
aI42522
aI37061
aI80752
aI85229
aI58531
aI91300
aI74586
aI58534
aI15217
aI42524
aI53447
aI91309
aI58543
aI83784
aI58545
aI91317
aI58553
aI91322
aI58555
aI96878
aI80757
aI91330
aI53451
aI91332
aI91335
aI72404
aI58574
aI91343
aI80760
aI37070
aI58584
aI58585
aI91355
aI91356
aI91360
aI86224
aI58595
aI91364
aI58598
aI91369
aI58607
aI58608
aI53459
aI58624
aI86230
aI58630
aI91399
aI75308
aI91404
aI91409
aI58642
aI97155
aI58644
aI58645
aI58646
aI69849
aI80210
aI58652
aI37082
aI58654
aI58655
aI58656
aI42544
aI69851
aI91428
aI91429
aI58665
aI57601
aI58669
aI65239
aI58671
aI58678
aI9780
aI91450
aI42549
aI58691
aI90116
aI58697
aI91468
aI58701
aI91471
aI58705
aI91475
aI91476
aI80261
aI37092
aI91482
aI85972
aI58719
aI64400
aI58726
aI97169
aI37095
aI58733
aI97171
aI91510
aI58743
aI58745
aI58746
aI58751
aI58754
aI91523
aI58756
aI91525
aI91526
aI58759
aI91528
aI82967
aI58764
aI58771
aI91540
aI71096
aI58775
aI58778
aI86255
aI58781
aI58782
aI42565
aI58784
aI86256
aI91565
aI85499
aI91568
aI58801
aI91570
aI91573
aI91577
aI91580
aI58813
aI91586
aI58822
aI58823
aI80520
aI91596
aI48034
aI61971
aI58834
aI58835
aI85281
aI58840
aI15268
aI91610
aI67427
aI91612
aI69882
aI58847
aI58850
aI58854
aI75345
aI58857
aI91626
aI48039
aI58860
aI70701
aI91635
aI91637
aI91732
aI91642
aI7416
aI73975
aI91651
aI45128
aI71793
aI91657
aI91658
aI58891
aI37122
aI58896
aI58898
aI78080
aI58901
aI58902
aI91737
aI91673
aI58907
aI77548
aI75354
aI91600
aI58912
aI58915
aI58916
aI58919
aI58921
aI91697
aI97203
aI58933
aI91702
aI58935
aI91704
aI91705
aI91707
aI58941
aI58942
aI91711
aI88967
aI58948
aI91718
aI85055
aI39577
aI58958
aI91727
aI58964
aI48057
aI58969
aI58970
aI58975
aI91748
aI91750
aI4369
aI69614
aI75368
aI90083
aI91769
aI91770
aI91771
aI39063
aI37141
aI42603
aI53526
aI91789
aI37144
aI91794
aI91797
aI86297
aI86298
aI97221
aI79436
aI91812
aI91761
aI91817
aI91818
aI42338
aI97224
aI97363
aI91831
aI91836
aI91838
aI37152
aI91843
aI86305
aI91849
aI91850
aI97285
aI91853
aI91859
aI91867
aI79438
aI91869
aI48080
aI91884
aI91891
aI39067
aI91893
aI91894
aI91901
aI91902
aI83319
aI81658
aI92533
aI64471
aI86317
aI91920
aI91926
aI78300
aI37167
aI91934
aI91939
aI91940
aI86321
aI37171
aI64478
aI26422
aI91963
aI26430
aI69941
aI26432
aI26437
aI26438
aI15329
aI26441
aI26443
aI26446
aI26449
aI26450
aI26454
aI26456
aI26457
aI91994
aI26459
aI26460
aI91998
aI92001
aI26466
aI92003
aI26468
aI73936
aI42641
aI26472
aI86332
aI26477
aI86333
aI26480
aI80872
aI26484
aI26487
aI26492
aI97258
aI26495
aI26497
aI26499
aI92038
aI92049
aI94013
aI26519
aI18341
aI26523
aI92061
aI26528
aI26530
aI75419
aI64497
aI92074
aI92076
aI26541
aI91805
aI26545
aI26547
aI26548
aI92085
aI26552
aI26553
aI26554
aI53578
aI66352
aI26560
aI42656
aI92098
aI92103
aI80887
aI26573
aI61988
aI26576
aI92113
aI42659
aI26582
aI97505
aI26589
aI92129
aI26594
aI26595
aI92132
aI42662
aI92134
aI26601
aI94450
aI92140
aI26608
aI92146
aI26611
aI80894
aI26614
aI92151
aI26617
aI26618
aI80895
aI92156
aI42666
aI92158
aI37205
aI92160
aI80896
aI92162
aI92163
aI92164
aI92166
aI26631
aI26632
aI26636
aI26638
aI75437
aI92176
aI26641
aI92180
aI75438
aI26647
aI26650
aI37210
aI92190
aI92191
aI75440
aI97286
aI92201
aI92203
aI42674
aI26670
aI26671
aI92209
aI81695
aI49989
aI40887
aI92217
aI26682
aI26684
aI26686
aI26688
aI97291
aI92229
aI61992
aI80908
aI26698
aI26699
aI26702
aI92239
aI92241
aI26706
aI26708
aI92245
aI92247
aI92248
aI26713
aI48143
aI92252
aI26721
aI92258
aI26723
aI26724
aI92263
aI26729
aI92270
aI42685
aI26741
aI26742
aI26743
aI92280
aI81634
aI47809
aI42687
aI92287
aI26753
aI73065
aI92293
aI26760
aI68541
aI92301
aI92303
aI26776
aI46719
aI26783
aI26784
aI26785
aI80923
aI92328
aI92330
aI26795
aI92334
aI26799
aI92338
aI92341
aI92343
aI26808
aI26809
aI26810
aI26811
aI92350
aI86389
aI97312
aI26819
aI26820
aI53622
aI92359
aI92361
aI92362
aI92364
aI26830
aI26832
aI37240
aI92924
aI26838
aI26840
aI26841
aI37242
aI26848
aI92385
aI26850
aI37243
aI76182
aI92391
aI92393
aI26858
aI64551
aI26860
aI87500
aI26862
aI26863
aI26868
aI92405
aI26870
aI92413
aI92416
aI26881
aI26883
aI26885
aI26888
aI26891
aI92429
aI90368
aI48173
aI92432
aI92433
aI70019
aI26903
aI92440
aI92445
aI92448
aI80944
aI26917
aI92454
aI93361
aI92459
aI26924
aI92462
aI26927
aI37256
aI26938
aI70026
aI53643
aI26948
aI92488
aI39087
aI26958
aI26959
aI26960
aI88188
aI92498
aI92501
aI92502
aI92506
aI26971
aI26972
aI26973
aI26974
aI92511
aI26982
aI26985
aI26986
aI26987
aI26990
aI92527
aI26995
aI78369
aI26998
aI75497
aI92539
aI92540
aI27005
aI27006
aI27007
aI80960
aI27011
aI92548
aI65276
aI27015
aI27019
aI27020
aI27021
aI27023
aI62003
aI27027
aI92564
aI92565
aI92566
aI79906
aI92555
aI27039
aI27040
aI27041
aI37275
aI27047
aI86428
aI80967
aI48200
aI27058
aI92598
aI84918
aI92602
aI27067
aI93362
aI92608
aI70048
aI72916
aI27082
aI92620
aI37282
aI92622
aI97357
aI69643
aI75512
aI27095
aI90119
aI4516
aI80975
aI42746
aI37285
aI92640
aI27105
aI64188
aI27109
aI27111
aI27112
aI92650
aI92651
aI27117
aI27118
aI86011
aI92657
aI27123
aI92660
aI75518
aI20905
aI27129
aI92666
aI74009
aI27133
aI92926
aI92674
aI92675
aI27141
aI92678
aI27144
aI27146
aI78374
aI27148
aI27149
aI92687
aI69385
aI92690
aI70062
aI27158
aI92695
aI92698
aI92700
aI92701
aI27167
aI80557
aI54370
aI27174
aI70065
aI27177
aI27178
aI92719
aI92721
aI27186
aI92723
aI52773
aI66373
aI92727
aI27193
aI92731
aI92733
aI27198
aI86453
aI27200
aI27201
aI27203
aI27205
aI27206
aI59977
aI27210
aI27211
aI59981
aI85703
aI37304
aI27219
aI92756
aI75534
aI27226
aI27227
aI92765
aI27230
aI92767
aI60000
aI60003
aI27237
aI27238
aI75537
aI60009
aI27242
aI92779
aI27247
aI97073
aI60017
aI27250
aI92787
aI92788
aI27254
aI27255
aI92793
aI92794
aI92796
aI27261
aI60030
aI60031
aI27265
aI60035
aI60036
aI60037
aI27270
aI27271
aI60040
aI84925
aI27274
aI92813
aI27278
aI97389
aI92816
aI92817
aI27283
aI27285
aI60054
aI27287
aI60057
aI27290
aI27291
aI54374
aI60062
aI27297
aI91931
aI27300
aI37318
aI92839
aI51101
aI75548
aI27306
aI27308
aI75106
aI60079
aI74015
aI27313
aI27314
aI27315
aI60084
aI27318
aI70090
aI60094
aI27327
aI92865
aI60099
aI92871
aI92872
aI27337
aI60108
aI82745
aI92878
aI60111
aI68035
aI27345
aI92884
aI27349
aI60119
aI83762
aI27354
aI70095
aI92894
aI42789
aI70096
aI27365
aI60137
aI60139
aI81655
aI60144
aI27378
aI60147
aI57985
aI97406
aI92922
aI60156
aI60158
aI27391
aI27393
aI27395
aI60166
aI64641
aI60169
aI27402
aI74018
aI27407
aI27408
aI27409
aI27410
aI60180
aI60181
aI27414
aI70105
aI60184
aI27417
aI27418
aI27421
aI27423
aI92960
aI27426
aI60195
aI81030
aI92970
aI60204
aI60205
aI27438
aI27439
aI92976
aI60209
aI27442
aI60211
aI60212
aI86494
aI27446
aI97417
aI60216
aI42804
aI60218
aI92987
aI60221
aI75573
aI60224
aI97419
aI27460
aI91958
aI37345
aI27464
aI56562
aI93002
aI42807
aI93004
aI27469
aI81037
aI27472
aI27474
aI27475
aI27476
aI27477
aI60247
aI27480
aI27481
aI97423
aI42810
aI60254
aI60256
aI93025
aI91479
aI64657
aI27496
aI60265
aI60266
aI27499
aI27500
aI93037
aI60270
aI93039
aI93043
aI27512
aI60281
aI84933
aI27515
aI67475
aI43828
aI81045
aI60289
aI60291
aI74582
aI27526
aI60297
aI60299
aI27532
aI27534
aI27536
aI91033
aI27539
aI27543
aI27545
aI60315
aI60316
aI60317
aI93087
aI27553
aI93090
aI27555
aI93092
aI27558
aI93098
aI27563
aI27569
aI93107
aI27573
aI27574
aI93111
aI27576
aI93113
aI93114
aI93116
aI27581
aI60350
aI93119
aI27584
aI60353
aI93122
aI91979
aI93124
aI27590
aI60360
aI27594
aI93132
aI27597
aI27599
aI60368
aI60369
aI43473
aI60371
aI27607
aI93144
aI27610
aI60379
aI60382
aI60384
aI93153
aI27619
aI27621
aI27622
aI10065
aI60392
aI27625
aI27627
aI27628
aI27630
aI27631
aI27632
aI60401
aI60405
aI60406
aI60407
aI91484
aI93177
aI27643
aI60412
aI56568
aI27646
aI60415
aI27648
aI93186
aI60420
aI54386
aI93192
aI79836
aI86530
aI27662
aI27663
aI84938
aI60433
aI85333
aI60436
aI60437
aI27670
aI60439
aI27672
aI93210
aI64687
aI93212
aI27679
aI93216
aI27683
aI93220
aI93222
aI27688
aI93225
aI27690
aI60460
aI93230
aI75613
aI79729
aI27698
aI27699
aI93241
aI86410
aI93247
aI60480
aI27715
aI69664
aI60488
aI27724
aI60494
aI27732
aI46344
aI27736
aI60505
aI60508
aI93277
aI60510
aI93279
aI27749
aI54959
aI60520
aI27753
aI60523
aI93293
aI60526
aI27759
aI27760
aI27761
aI27763
aI65301
aI60533
aI92009
aI60546
aI60547
aI60548
aI93317
aI60553
aI27789
aI60558
aI27791
aI93328
aI27795
aI93333
aI27799
aI80578
aI60570
aI93339
aI27805
aI27808
aI27809
aI27812
aI27813
aI93351
aI93352
aI86602
aI93437
aI27819
aI60588
aI27821
aI27822
aI60592
aI27825
aI60594
aI27827
aI96946
aI63121
aI60602
aI27835
aI27836
aI78397
aI27838
aI93376
aI27842
aI93379
aI60612
aI93383
aI27850
aI60619
aI27852
aI27855
aI27857
aI93394
aI27859
aI27860
aI60629
aI27862
aI93399
aI60632
aI27865
aI93402
aI27867
aI27869
aI27870
aI27872
aI60643
aI93412
aI27877
aI60646
aI64721
aI60649
aI60650
aI48338
aI60654
aI75645
aI27888
aI27889
aI93428
aI27894
aI60663
aI93432
aI93433
aI93434
aI27900
aI60669
aI60671
aI60672
aI42880
aI93442
aI60675
aI93444
aI27912
aI27914
aI60683
aI27916
aI60685
aI93454
aI93456
aI60689
aI60690
aI27923
aI70190
aI27926
aI27927
aI60696
aI27929
aI65435
aI97514
aI27934
aI76218
aI27937
aI60706
aI60708
aI57669
aI91622
aI60712
aI90403
aI60715
aI93484
aI73055
aI93486
aI81117
aI60720
aI93490
aI93491
aI97502
aI60726
aI27959
aI60728
aI93498
aI60731
aI27964
aI27966
aI93503
aI73946
aI27971
aI27972
aI27975
aI93512
aI27978
aI60747
aI27983
aI27985
aI93522
aI27987
aI75662
aI93526
aI27992
aI27993
aI60764
aI93533
aI93534
aI27999
aI28000
aI60769
aI90405
aI28006
aI75665
aI60778
aI81127
aI60780
aI28015
aI48360
aI93554
aI28019
aI28020
aI60792
aI28026
aI93564
aI93565
aI93566
aI66745
aI28032
aI93569
aI60803
aI60804
aI60805
aI93574
aI28039
aI28042
aI60812
aI28045
aI93582
aI97517
aI28049
aI93586
aI28051
aI28054
aI75673
aI52997
aI86596
aI60826
aI93595
aI93597
aI28064
aI60834
aI60835
aI60836
aI93605
aI28070
aI28071
aI28074
aI53831
aI28076
aI93614
aI60847
aI60848
aI28082
aI28084
aI28086
aI70217
aI48372
aI28090
aI60859
aI28092
aI28093
aI60863
aI75680
aI93634
aI86603
aI28100
aI60869
aI42913
aI28104
aI28105
aI92496
aI60876
aI60877
aI28110
aI60879
aI28113
aI60883
aI60884
aI60885
aI93654
aI64761
aI93656
aI28124
aI28125
aI28126
aI75685
aI28128
aI60897
aI87477
aI60902
aI70769
aI28137
aI60906
aI92071
aI28140
aI93677
aI28143
aI28145
aI28147
aI28149
aI28150
aI28151
aI28154
aI60924
aI60925
aI70229
aI28160
aI48384
aI28164
aI53846
aI93702
aI93704
aI28170
aI86615
aI93708
aI28175
aI28177
aI60947
aI28180
aI28181
aI86617
aI60952
aI28187
aI28189
aI28191
aI28193
aI54404
aI93731
aI60964
aI28197
aI60966
aI42929
aI28202
aI81159
aI60972
aI60974
aI60975
aI50040
aI28211
aI93750
aI28215
aI28216
aI28218
aI28220
aI60989
aI28223
aI28225
aI60994
aI28227
aI60996
aI93765
aI60998
aI91618
aI28232
aI75703
aI61005
aI61006
aI61007
aI92088
aI93778
aI86627
aI28244
aI28245
aI61017
aI28251
aI75706
aI28254
aI28255
aI78411
aI28261
aI28262
aI61032
aI61034
aI61035
aI28269
aI93806
aI28276
aI50598
aI28278
aI93815
aI28280
aI28283
aI28284
aI45678
aI97322
aI61056
aI61059
aI93828
aI93829
aI28296
aI67501
aI66965
aI61067
aI42946
aI28302
aI28304
aI93842
aI72957
aI93844
aI28310
aI28312
aI28313
aI93850
aI61083
aI61084
aI64794
aI61086
aI93855
aI61088
aI28321
aI28322
aI61091
aI28324
aI93861
aI28326
aI93864
aI28331
aI82778
aI61101
aI61104
aI28339
aI48414
aI28342
aI28343
aI28345
aI28346
aI61115
aI61117
aI61118
aI64800
aI28355
aI92599
aI28360
aI93897
aI28363
aI28366
aI61135
aI28370
aI61141
aI93910
aI61146
aI28379
aI61148
aI86053
aI28382
aI28383
aI28385
aI28389
aI66413
aI61160
aI28393
aI93930
aI28395
aI61164
aI96973
aI93938
aI93939
aI28405
aI93944
aI28409
aI61178
aI53887
aI28413
aI61187
aI28420
aI28421
aI61190
aI61193
aI28426
aI28428
aI61197
aI61198
aI28431
aI61200
aI61201
aI61202
aI61203
aI61204
aI97582
aI93976
aI93977
aI93978
aI61211
aI61214
aI68930
aI83873
aI28450
aI28451
aI28452
aI86411
aI61225
aI93994
aI28459
aI28462
aI93999
aI87147
aI69689
aI61238
aI61239
aI94008
aI28473
aI94010
aI86666
aI28478
aI94015
aI94016
aI74054
aI61253
aI28486
aI61257
aI61258
aI28491
aI88239
aI61264
aI81208
aI61266
aI28499
aI94037
aI94038
aI61271
aI61273
aI28506
aI61275
aI61278
aI94047
aI94048
aI28513
aI61284
aI28517
aI28519
aI61288
aI94057
aI61290
aI28523
aI61293
aI28526
aI48445
aI94064
aI61297
aI94787
aI28533
aI61302
aI61303
aI28538
aI28539
aI28541
aI94078
aI94085
aI81217
aI61320
aI42988
aI61323
aI94093
aI28558
aI61327
aI97603
aI94104
aI28569
aI94106
aI61340
aI28573
aI28576
aI94113
aI28579
aI61351
aI79513
aI28585
aI61354
aI28587
aI94125
aI28590
aI28591
aI61360
aI48456
aI28594
aI61363
aI28597
aI28598
aI66420
aI28603
aI94140
aI28605
aI92149
aI28608
aI94146
aI28611
aI94148
aI92150
aI79514
aI94154
aI94156
aI28621
aI28622
aI97613
aI61392
aI28627
aI61396
aI28629
aI94166
aI92153
aI94168
aI86692
aI94170
aI97615
aI94172
aI61405
aI86693
aI28641
aI28642
aI75771
aI61415
aI28650
aI61419
aI28653
aI28654
aI28655
aI28657
aI28658
aI61427
aI28661
aI94198
aI28663
aI94200
aI28665
aI94202
aI92159
aI61438
aI94207
aI43008
aI61442
aI92161
aI94216
aI94217
aI28685
aI28686
aI28687
aI28688
aI94226
aI75779
aI28693
aI74061
aI28695
aI61464
aI28699
aI28700
aI28701
aI28703
aI28705
aI70788
aI28707
aI85857
aI94248
aI28713
aI28715
aI28716
aI61485
aI94256
aI92168
aI28722
aI28723
aI61495
aI28728
aI81247
aI61502
aI94272
aI78427
aI94275
aI86710
aI28742
aI28743
aI94280
aI92172
aI61515
aI94284
aI86390
aI66425
aI96454
aI28763
aI28767
aI61536
aI85299
aI28771
aI61540
aI61541
aI28774
aI28775
aI76246
aI28777
aI61547
aI28780
aI28782
aI57697
aI94321
aI94323
aI61556
aI28790
aI28792
aI75796
aI61562
aI28797
aI61566
aI92181
aI28801
aI61571
aI94340
aI28811
aI28812
aI61581
aI75800
aI28818
aI86723
aI85954
aI94357
aI28822
aI94359
aI61592
aI28829
aI28830
aI28832
aI94369
aI61602
aI94372
aI61606
aI28839
aI61608
aI61610
aI94380
aI80935
aI28846
aI61615
aI94385
aI28850
aI71884
aI70345
aI61624
aI94393
aI28858
aI28859
aI28860
aI61631
aI28864
aI28866
aI86731
aI28868
aI92193
aI90907
aI61641
aI28874
aI94411
aI94413
aI28878
aI61647
aI28880
aI57367
aI94418
aI94419
aI28884
aI61653
aI94422
aI61655
aI28888
aI94425
aI94427
aI28893
aI28894
aI28895
aI94432
aI61665
aI28899
aI28900
aI61669
aI28902
aI94440
aI94441
aI28906
aI28907
aI72977
aI94448
aI28913
aI28914
aI28916
aI28917
aI61686
aI75817
aI94459
aI61692
aI94461
aI28927
aI94466
aI28931
aI28932
aI37590
aI28934
aI61703
aI94473
aI94474
aI28940
aI94477
aI28944
aI70360
aI28946
aI61719
aI28952
aI61721
aI92207
aI61726
aI69176
aI28960
aI28961
aI53979
aI28965
aI28966
aI75825
aI28968
aI70364
aI94506
aI28972
aI61743
aI28976
aI94516
aI28981
aI28982
aI94519
aI93711
aI34790
aI76253
aI94523
aI61756
aI28990
aI28991
aI94528
aI28993
aI28994
aI81291
aI28996
aI72980
aI61767
aI29001
aI61770
aI83773
aI71136
aI29008
aI29009
aI94546
aI29012
aI61781
aI61782
aI67525
aI61787
aI92218
aI29023
aI61792
aI29025
aI29026
aI29027
aI61796
aI29031
aI61801
aI61804
aI48530
aI61808
aI94577
aI29042
aI29043
aI29045
aI53993
aI29048
aI64916
aI61819
aI29052
aI82802
aI29055
aI94592
aI94593
aI96489
aI94599
aI29064
aI61833
aI61834
aI61838
aI29072
aI61842
aI86766
aI61846
aI64921
aI43076
aI29082
aI86767
aI94620
aI61853
aI29086
aI61857
aI94628
aI61861
aI61862
aI29096
aI48540
aI61866
aI92231
aI94636
aI29101
aI29102
aI29104
aI29107
aI92233
aI29112
aI54004
aI71367
aI29117
aI29118
aI94657
aI29123
aI61894
aI29129
aI29131
aI94669
aI29135
aI92625
aI61909
aI94679
aI61912
aI94681
aI29147
aI94688
aI94690
aI29155
aI62074
aI94695
aI29161
aI29162
aI29163
aI94702
aI86781
aI29169
aI29170
aI94707
aI94708
aI61941
aI29175
aI29176
aI29177
aI29179
aI29181
aI50885
aI94719
aI29187
aI61960
aI61961
aI84989
aI61965
aI29199
aI29200
aI75169
aI70403
aI61972
aI64942
aI61975
aI94744
aI61980
aI29213
aI94750
aI61984
aI61986
aI92251
aI29220
aI29223
aI29224
aI61993
aI61995
aI94767
aI15795
aI29238
aI29239
aI29245
aI29247
aI94784
aI69715
aI54027
aI48566
aI29254
aI93813
aI94795
aI29262
aI62032
aI62035
aI94805
aI94806
aI81337
aI29272
aI43108
aI86799
aI62046
aI29279
aI94819
aI29284
aI67332
aI29287
aI33709
aI29290
aI75172
aI94828
aI54034
aI94830
aI74081
aI94834
aI29299
aI29303
aI94840
aI29306
aI29307
aI29308
aI29309
aI62078
aI29311
aI62082
aI29315
aI84993
aI94853
aI67535
aI62088
aI62089
aI62090
aI29323
aI94862
aI29329
aI94868
aI54041
aI29336
aI29337
aI92271
aI29341
aI29342
aI29343
aI62112
aI62113
aI29346
aI70427
aI29348
aI29349
aI43121
aI94888
aI29353
aI29354
aI94891
aI29356
aI94895
aI94896
aI80630
aI29363
aI94900
aI29367
aI94904
aI70431
aI92277
aI29376
aI94913
aI94915
aI29380
aI62149
aI94918
aI29384
aI29386
aI92279
aI29389
aI94926
aI29391
aI94929
aI54051
aI48590
aI29398
aI29399
aI94936
aI29401
aI62172
aI29406
aI62176
aI29409
aI94947
aI91543
aI94949
aI62183
aI62184
aI29418
aI29419
aI94956
aI94957
aI29423
aI29425
aI94962
aI15827
aI29428
aI62197
aI62199
aI29437
aI29439
aI94976
aI62210
aI62212
aI62213
aI29446
aI29449
aI10370
aI54446
aI94992
aI29457
aI94994
aI29464
aI62233
aI33715
aI62238
aI29471
aI29472
aI62242
aI91414
aI81725
aI29478
aI29480
aI29481
aI62251
aI29351
aI45718
aI29493
aI29494
aI75913
aI62265
aI62267
aI29501
aI29502
aI86837
aI29506
aI62279
aI70455
aI29517
aI37689
aI43151
aI91547
aI43152
aI62311
aI62319
aI62322
aI54078
aI62326
aI43156
aI62340
aI43158
aI94883
aI62344
aI48621
aI92312
aI62354
aI65446
aI75929
aI92130
aI64271
aI50711
aI62376
aI78456
aI69727
aI62380
aI81395
aI91550
aI62392
aI81396
aI75935
aI62404
aI62405
aI87186
aI62408
aI63499
aI62415
aI62418
aI43171
aI97089
aI62423
aI93161
aI62431
aI45724
aI62091
aI62438
aI86865
aI62447
aI62449
aI62451
aI90461
aI70484
aI92943
aI62465
aI62467
aI81409
aI68639
aI43180
aI85006
aI70487
aI62482
aI62497
aI62503
aI62504
aI62505
aI62507
aI50091
aI62521
aI62523
aI62525
aI86779
aI62530
aI62539
aI62541
aI54115
aI62551
aI62558
aI81424
aI92347
aI62564
aI56282
aI62568
aI62569
aI62572
aI80645
aI62583
aI62585
aI43199
aI62589
aI62595
aI62598
aI66461
aI62603
aI62608
aI62610
aI92355
aI62617
aI62626
aI81435
aI62628
aI62629
aI82834
aI62634
aI62635
aI62641
aI90762
aI62648
aI69376
aI62651
aI62652
aI85012
aI86901
aI62662
aI74101
aI90468
aI86903
aI62669
aI62671
aI87195
aI86905
aI62680
aI62682
aI62684
aI62685
aI62695
aI73011
aI39186
aI34024
aI65065
aI93743
aI81450
aI62722
aI62729
aI62732
aI70530
aI62736
aI69739
aI58029
aI62751
aI81456
aI62755
aI54150
aI37767
aI62773
aI62782
aI81461
aI60502
aI62789
aI62794
aI62796
aI86108
aI48696
aI62804
aI62806
aI62813
aI62814
aI62815
aI86928
aI62818
aI62821
aI62824
aI62825
aI43239
aI43241
aI62846
aI62850
aI76011
aI48705
aI53376
aI92397
aI62865
aI62867
aI62868
aI62869
aI86937
aI74108
aI62878
aI70555
aI62885
aI78473
aI62891
aI62893
aI62896
aI62901
aI62903
aI62905
aI62908
aI48714
aI62911
aI39481
aI62913
aI92406
aI62918
aI54177
aI70562
aI92659
aI38390
aI65103
aI43258
aI62942
aI48720
aI43259
aI62948
aI62949
aI97529
aI62957
aI62960
aI62964
aI76030
aI71929
aI65109
aI62976
aI60431
aI43265
aI62984
aI37333
aI62991
aI82841
aI62997
aI63001
aI48730
aI28285
aI94844
aI65115
aI70577
aI48732
aI83933
aI63020
aI54194
aI63022
aI86400
aI63025
aI63027
aI81502
aI80565
aI63032
aI48735
aI63039
aI63041
aI63045
aI63052
aI36645
aI66760
aI73525
aI63063
aI63075
aI43281
aI81163
aI66477
aI63087
aI65128
aI63093
aI63100
aI63101
aI63103
aI84873
aI63111
aI82845
aI63113
aI63114
aI63119
aI71934
aI63126
aI73451
aI63133
aI63135
aI75208
aI63143
aI63155
aI34027
aI94257
aI63163
aI63164
aI66480
aI74118
aI32936
aI63178
aI63179
aI80665
aI63189
aI48761
aI63192
aI63195
aI65146
aI38610
aI63199
aI66481
aI54225
aI63209
aI54226
aI63226
aI69043
aI63231
aI63232
aI63238
aI63239
aI76076
aI96013
aI96015
aI96017
aI76145
aI1015
aI93877
aI63258
aI83941
aI63260
aI87002
aI96030
aI74121
aI63266
aI63267
aI76081
aI96041
aI65159
aI63277
aI63278
aI87005
aI94619
aI63281
aI63282
aI43315
aI30516
aI63285
aI30522
aI70623
aI96061
aI30528
aI70624
aI30531
aI96068
aI96222
aI30535
aI30537
aI96074
aI96075
aI30542
aI63311
aI30544
aI30545
aI30546
aI96084
aI96089
aI63322
aI96091
aI63325
aI96096
aI96098
aI96100
aI96101
aI30567
aI87217
aI78488
aI87015
aI96109
aI92477
aI30577
aI30578
aI63347
aI63348
aI63350
aI54249
aI63352
aI30586
aI63355
aI96124
aI30591
aI52141
aI63361
aI63367
aI30600
aI81559
aI96845
aI30606
aI30607
aI30608
aI63380
aI63382
aI63383
aI96152
aI63385
aI63386
aI76101
aI30624
aI30628
aI76102
aI30632
aI65180
aI30637
aI30639
aI30641
aI30642
aI63411
aI96180
aI76105
aI30648
aI30650
aI96187
aI63422
aI96191
aI30657
aI63427
aI54262
aI30663
aI30664
aI96201
aI30667
aI30668
aI96205
aI63438
aI63439
aI70648
aI63443
aI63444
aI30677
aI30678
aI54265
aI76111
aI30684
aI63453
aI30686
aI30687
aI30688
aI63457
aI96226
aI94859
aI63461
aI96230
aI43345
aI30696
aI63465
aI30698
aI48807
aI92677
aI30701
aI96238
aI30703
aI30706
aI63475
aI30708
aI96245
aI30710
aI30712
aI96250
aI30716
aI96253
aI30718
aI30720
aI96258
aI96260
aI96261
aI92077
aI30728
aI30730
aI30731
aI96269
aI96270
aI96271
aI63504
aI30737
aI30738
aI30739
aI96276
aI30744
aI30745
aI30746
aI63515
aI30749
aI63518
aI30751
aI30753
aI30754
aI63523
aI30756
aI30759
aI30761
aI96299
aI63532
aI30766
aI30767
aI30768
aI30769
aI63539
aI30772
aI30773
aI30775
aI30777
aI30779
aI30782
aI30784
aI30785
aI96322
aI96324
aI81590
aI30792
aI30793
aI81591
aI30796
aI30799
aI96336
aI30803
aI96341
aI30807
aI63576
aI76132
aI30811
aI96348
aI63581
aI96351
aI96352
aI30817
aI30818
aI77893
aI30820
aI30821
aI30824
aI30826
aI63595
aI96365
aI30830
aI43368
aI30837
aI30840
aI63609
aI96379
aI76138
aI96383
aI30849
aI43371
aI30852
aI30853
aI96392
aI63625
aI30860
aI30862
aI61090
aI96400
aI63634
aI48835
aI30868
aI87227
aI63639
aI30872
aI30873
aI83349
aI63643
aI63646
aI63652
aI96421
aI63655
aI63656
aI63658
aI96428
aI76146
aI30897
aI63670
aI30903
aI30904
aI63676
aI30911
aI96448
aI63681
aI66497
aI96451
aI63685
aI90502
aI39219
aI92535
aI30925
aI96463
aI96469
aI63702
aI30935
aI30938
aI48847
aI30940
aI63709
aI96480
aI30948
aI78985
aI63719
aI76156
aI71954
aI30955
aI96495
aI63729
aI63730
aI30963
aI30964
aI30965
aI30966
aI30967
aI96504
aI30969
aI63738
aI30971
aI63740
aI30974
aI63747
aI30980
aI30981
aI96518
aI30983
aI63752
aI63753
aI30987
aI96524
aI76162
aI63759
aI30996
aI30997
aI30998
aI30999
aI88369
aI31001
aI63770
aI96539
aI31004
aI63774
aI63776
aI63777
aI31011
aI96548
aI31013
aI31015
aI96554
aI92551
aI31021
aI96558
aI31024
aI63793
aI31026
aI31031
aI81631
aI31036
aI31037
aI31038
aI31040
aI96577
aI96578
aI63811
aI31044
aI31047
aI96585
aI31050
aI31052
aI31053
aI31055
aI31056
aI31058
aI31060
aI31061
aI96599
aI31064
aI96602
aI63835
aI63836
aI31069
aI96606
aI96607
aI31072
aI63842
aI31076
aI63845
aI96617
aI31082
aI83403
aI31084
aI96621
aI87101
aI96624
aI16104
aI96626
aI31094
aI96633
aI63868
aI31101
aI31102
aI31104
aI96641
aI31106
aI31107
aI31109
aI63878
aI87105
aI16108
aI31115
aI96653
aI31119
aI96658
aI54339
aI31124
aI86851
aI31127
aI70039
aI73051
aI70725
aI63904
aI63905
aI31141
aI31143
aI31149
aI31151
aI63920
aI96690
aI31155
aI63924
aI31161
aI31163
aI31165
aI31167
aI63937
aI31171
aI96708
aI31173
aI63943
aI34863
aI76326
aI31180
aI31182
aI31183
aI63954
aI31187
aI31188
aI31189
aI31190
aI31191
aI63960
aI31196
aI31197
aI63967
aI31200
aI76198
aI63974
aI96743
aI31208
aI31209
aI63978
aI31211
aI31212
aI54354
aI82874
aI43432
aI31219
aI31220
aI96758
aI63991
aI31225
aI65279
aI63996
aI96766
aI64000
aI64002
aI64003
aI31236
aI31239
aI96776
aI96778
aI87127
aI7587
aI31246
aI31248
aI96785
aI31250
aI48899
aI31253
aI96790
aI31255
aI93505
aI31261
aI96799
aI96800
aI76208
aI31267
aI64036
aI92593
aI31272
aI31273
aI31275
aI64046
aI64047
aI31280
aI31282
aI76211
aI31284
aI31285
aI64054
aI96823
aI64056
aI96825
aI31290
aI84725
aI64060
aI96123
aI96830
aI31295
aI64066
aI96838
aI64071
aI64073
aI64074
aI31307
aI31309
aI31310
aI31311
aI96848
aI43448
aI64083
aI31316
aI31317
aI64086
aI31319
aI31321
aI64090
aI31323
aI31325
aI31327
aI31331
aI31333
aI96870
aI31335
aI31336
aI96874
aI64110
aI31343
aI31345
aI96883
aI31350
aI31351
aI31352
aI31354
aI96891
aI31357
aI31358
aI31359
aI64131
aI96900
aI32534
aI74150
aI96904
aI87148
aI96908
aI76226
aI31376
aI31380
aI64152
aI31385
aI93791
aI31387
aI96925
aI31391
aI31392
aI96929
aI96931
aI76230
aI96934
aI64167
aI31401
aI31402
aI43463
aI31404
aI64173
aI64174
aI31407
aI31409
aI64178
aI96948
aI31413
aI31414
aI76233
aI31419
aI31420
aI31421
aI95013
aI31426
aI31430
aI48929
aI96968
aI31433
aI31435
aI64205
aI64207
aI96976
aI96977
aI96978
aI76238
aI66993
aI31448
aI31450
aI96987
aI96989
aI31455
aI31457
aI31459
aI31461
aI64230
aI31463
aI31469
aI64241
aI31476
aI93794
aI64246
aI31479
aI31480
aI82487
aI31485
aI97022
aI31487
aI64257
aI31491
aI97028
aI64261
aI64262
aI64263
aI64264
aI31497
aI97035
aI64270
aI31503
aI31506
aI87171
aI85066
aI31509
aI64281
aI31514
aI64284
aI31520
aI31524
aI70790
aI97062
aI64295
aI31530
aI64301
aI64302
aI31535
aI31537
aI31540
aI92705
aI87177
aI31546
aI31547
aI31548
aI31551
aI64320
aI64321
aI31554
aI31555
aI97094
aI64327
aI87180
aI31566
aI97103
aI97104
aI31569
aI10723
aI31572
aI97109
aI66519
aI97111
aI97112
aI97113
aI31579
aI64348
aI31581
aI64350
aI31584
aI64354
aI97125
aI31591
aI44697
aI92647
aI97132
aI70802
aI48957
aI31600
aI64369
aI31602
aI31603
aI97141
aI97143
aI97146
aI93035
aI31613
aI67860
aI97154
aI64387
aI97157
aI97159
aI64392
aI64396
aI97165
aI31632
aI31633
aI64402
aI31635
aI31637
aI90526
aI39243
aI64413
aI31646
aI31649
aI97186
aI31651
aI31653
aI64422
aI76273
aI97192
aI64425
aI31665
aI64435
aI31668
aI48969
aI97209
aI64442
aI70815
aI64447
aI64449
aI97218
aI64451
aI31685
aI31687
aI31688
aI76343
aI31691
aI97228
aI31696
aI10744
aI97235
aI31700
aI31703
aI31704
aI87204
aI64474
aI64475
aI31709
aI31710
aI64479
aI97248
aI97250
aI97254
aI81745
aI17423
aI31721
aI85350
aI31723
aI81746
aI31726
aI87114
aI31729
aI64498
aI97267
aI31732
aI64502
aI31735
aI57386
aI64505
aI31739
aI31740
aI31743
aI64515
aI64516
aI64517
aI64518
aI77681
aI97288
aI31753
aI97290
aI81751
aI97293
aI64527
aI97299
aI31764
aI31765
aI97302
aI76292
aI97306
aI97307
aI64540
aI31773
aI31775
aI31776
aI97317
aI83984
aI31783
aI97320
aI31785
aI45399
aI64556
aI54450
aI97326
aI31792
aI64561
aI31797
aI31801
aI31803
aI31805
aI31808
aI10763
aI31812
aI64581
aI31815
aI97352
aI31819
aI97356
aI81762
aI64591
aI31826
aI31827
aI31828
aI31830
aI97368
aI75417
aI54768
aI31843
aI97380
aI31846
aI31848
aI31851
aI97388
aI64621
aI31855
aI31857
aI64626
aI31860
aI31861
aI31864
aI43540
aI97402
aI31868
aI31869
aI64638
aI43541
aI31872
aI50162
aI97410
aI31875
aI31876
aI97414
aI64647
aI31880
aI31881
aI97418
aI31883
aI29431
aI64656
aI43544
aI31891
aI31893
aI31894
aI31896
aI31898
aI64667
aI88375
aI97439
aI64673
aI64678
aI31911
aI31912
aI97450
aI97452
aI31917
aI31919
aI64693
aI97464
aI31930
aI50164
aI31935
aI31936
aI87243
aI31940
aI31942
aI76321
aI64712
aI71987
aI31946
aI64719
aI31952
aI31953
aI31954
aI97492
aI31957
aI97494
aI64727
aI31960
aI97497
aI64731
aI31964
aI65402
aI31966
aI31967
aI31969
aI31971
aI31972
aI31973
aI97510
aI64743
aI97512
aI64745
aI64746
aI97515
aI31981
aI78535
aI97520
aI31985
aI31986
aI65728
aI31990
aI31991
aI64760
aI31993
aI64762
aI80956
aI32000
aI32001
aI64771
aI64774
aI97543
aI97544
aI32009
aI32010
aI70871
aI32012
aI32013
aI32014
aI32015
aI93812
aI64786
aI84666
aI64791
aI65412
aI32026
aI76335
aI32029
aI81810
aI32032
aI32033
aI32037
aI54532
aI32039
aI64809
aI97579
aI97580
aI32046
aI32047
aI64819
aI32052
aI97589
aI32054
aI32056
aI32057
aI97596
aI97597
aI97598
aI43573
aI64834
aI67863
aI79629
aI64837
aI64838
aI64840
aI97609
aI32074
aI32075
aI64845
aI32078
aI65421
aI32080
aI32081
aI32082
aI97619
aI32084
aI32085
aI32087
aI32088
aI87268
aI32091
aI32092
aI71992
aI97088
aI32097
aI32099
aI54502
aI64877
aI32111
aI64880
aI32114
aI32117
aI54505
aI64888
aI32121
aI76351
aI32124
aI53897
aI32126
aI32127
aI76352
aI32130
aI32131
aI43585
aI64904
aI64905
aI32138
aI64907
aI64908
aI32141
aI32142
aI32143
aI96935
aI32146
aI32148
aI64917
aI85758
aI32155
aI32156
aI32157
aI32158
aI76357
aI64929
aI32162
aI32163
aI32165
aI32168
aI32170
aI64939
aI32172
aI32174
aI32181
aI74847
aI32189
aI32190
aI32192
aI64970
aI70903
aI96420
aI32207
aI32208
aI54520
aI32211
aI32212
aI64981
aI64983
aI32216
aI32217
aI64987
aI32220
aI64990
aI64993
aI64994
aI32229
aI27217
aI43602
aI65007
aI71997
aI32249
aI32250
aI65021
aI32258
aI85091
aI76362
aI92729
aI32262
aI87297
aI65033
aI32267
aI32268
aI65038
aI65453
aI32274
aI32277
aI92742
aI32281
aI77986
aI32285
aI65054
aI32287
aI65058
aI32292
aI32295
aI32297
aI81842
aI65073
aI88366
aI65076
aI32309
aI32310
aI32311
aI78546
aI65087
aI65088
aI65089
aI32323
aI65097
aI32335
aI45813
aI32340
aI32341
aI32344
aI32347
aI65116
aI65117
aI92773
aI32352
aI32354
aI32357
aI32360
aI65131
aI32367
aI32368
aI76392
aI32375
aI32377
aI32378
aI65147
aI32381
aI32384
aI32385
aI32387
aI65158
aI32391
aI32392
aI32395
aI65165
aI32399
aI32400
aI32403
aI32404
aI32405
aI32408
aI51271
aI32412
aI72448
aI32414
aI65184
aI65186
aI87942
aI65190
aI65191
aI65194
aI90779
aI32430
aI32431
aI81864
aI65202
aI65203
aI32436
aI65205
aI65206
aI32439
aI92735
aI32442
aI32446
aI82915
aI32448
aI90553
aI65219
aI32453
aI65222
aI21793
aI65225
aI65227
aI32460
aI65229
aI65230
aI65231
aI32468
aI65238
aI32471
aI65240
aI32474
aI91645
aI65247
aI32481
aI87506
aI32489
aI65258
aI78552
aI65261
aI32494
aI65267
aI65271
aI66550
aI32508
aI32509
aI32510
aI32511
aI65283
aI32517
aI65287
aI65294
aI65295
aI65296
aI32532
aI32533
aI65302
aI32537
aI65309
aI65311
aI32547
aI32554
aI32555
aI32560
aI32563
aI65332
aI32568
aI32569
aI65340
aI32575
aI32577
aI65349
aI32582
aI32583
aI54583
aI65357
aI65359
aI54584
aI32596
aI32597
aI32601
aI72009
aI81893
aI32608
aI32610
aI79869
aI32615
aI32623
aI81896
aI32628
aI32630
aI32631
aI32634
aI32637
aI65406
aI65407
aI65408
aI32643
aI32644
aI32645
aI54593
aI65416
aI32649
aI43671
aI32652
aI32653
aI65425
aI70979
aI65430
aI94718
aI65519
aI93007
aI32669
aI32670
aI32671
aI94925
aI32678
aI66556
aI92829
aI32688
aI92830
aI32695
aI97108
aI79650
aI65470
aI32705
aI32706
aI32707
aI32708
aI32709
aI92833
aI65481
aI32715
aI65485
aI65489
aI65491
aI65493
aI32730
aI65499
aI32732
aI32733
aI65505
aI32738
aI65509
aI32744
aI32745
aI65514
aI61539
aI65517
aI65518
aI65533
aI65520
aI60072
aI65526
aI90563
aI65528
aI32762
aI65535
aI60074
aI65534
aI32767
atp2
Rp3
.