c__builtin__
set
p0
((lp1
I32768
aI32769
aI3
aI32772
aI40965
aI45057
aI8
aI32778
aI1331
aI13
aI32783
aI45336
aI40978
aI32771
aI21
aI22
aI1369
aI40984
aI25
aI32794
aI28
aI34138
aI32798
aI32799
aI32800
aI32803
aI36870
aI35505
aI32808
aI24617
aI32810
aI43
aI32812
aI32813
aI32816
aI49
aI53
aI32822
aI41015
aI59
aI60
aI10
aI62
aI45467
aI64
aI65
aI24643
aI23222
aI34145
aI73
aI41034
aI32845
aI8271
aI41040
aI81
aI32851
aI32853
aI32855
aI32856
aI20495
aI32861
aI94
aI96
aI41058
aI32867
aI101
aI8294
aI103
aI35465
aI32873
aI24682
aI32875
aI32876
aI18
aI32878
aI10941
aI32880
aI117
aI24694
aI12279
aI32789
aI32896
aI130
aI46443
aI24711
aI136
aI32906
aI8331
aI8332
aI141
aI32910
aI32911
aI32912
aI32914
aI32915
aI32916
aI32917
aI43650
aI32922
aI41115
aI156
aI32925
aI41118
aI160
aI8353
aI20507
aI32934
aI32935
aI32936
aI32937
aI32939
aI32940
aI45085
aI178
aI34163
aI40990
aI32950
aI24759
aI185
aI37650
aI36895
aI8381
aI32958
aI32959
aI32960
aI24769
aI41155
aI32964
aI32966
aI24775
aI41160
aI201
aI8394
aI41163
aI24782
aI32975
aI41168
aI35
aI8407
aI41176
aI41177
aI41178
aI42362
aI41182
aI41183
aI32993
aI41186
aI32997
aI45835
aI33001
aI41194
aI41195
aI236
aI41198
aI38269
aI33011
aI244
aI245
aI24823
aI41208
aI249
aI33018
aI8234
aI46156
aI7919
aI24832
aI43108
aI258
aI45099
aI33028
aI41222
aI8009
aI28716
aI41227
aI269
aI24846
aI33043
aI8469
aI42119
aI6873
aI43671
aI284
aI285
aI41246
aI41248
aI41008
aI33058
aI33064
aI41259
aI33068
aI8494
aI41263
aI21497
aI24885
aI33079
aI46656
aI6879
aI37482
aI8513
aI322
aI34187
aI33092
aI33093
aI33094
aI33095
aI41289
aI333
aI42565
aI24914
aI39019
aI344
aI43748
aI346
aI24924
aI41309
aI8542
aI351
aI45839
aI34192
aI33122
aI20539
aI358
aI24935
aI41320
aI33129
aI33136
aI41329
aI8562
aI33139
aI372
aI32830
aI33142
aI33144
aI8569
aI33146
aI379
aI41340
aI381
aI8575
aI33152
aI33153
aI386
aI44793
aI388
aI17814
aI33159
aI33162
aI33165
aI31469
aI33169
aI45175
aI41365
aI41366
aI41368
aI33177
aI41372
aI42394
aI24991
aI33186
aI6222
aI45127
aI429
aI33198
aI33200
aI33202
aI24649
aI440
aI43764
aI27020
aI33211
aI40932
aI41406
aI33567
aI450
aI41205
aI452
aI2806
aI25030
aI25031
aI456
aI41418
aI41419
aI460
aI41421
aI25038
aI464
aI41427
aI33237
aI33241
aI41434
aI45135
aI33244
aI33245
aI25055
aI41440
aI481
aI41443
aI34214
aI33255
aI33256
aI33257
aI36569
aI33260
aI4178
aI41454
aI39229
aI33266
aI41459
aI33269
aI41462
aI33279
aI41472
aI8705
aI25091
aI33284
aI25093
aI33286
aI519
aI41481
aI33290
aI41483
aI35479
aI41486
aI527
aI529
aI8722
aI35587
aI532
aI41494
aI8727
aI25112
aI25114
aI41499
aI540
aI33309
aI542
aI33312
aI546
aI25125
aI2746
aI33320
aI41514
aI35591
aI33324
aI33325
aI25134
aI41519
aI43705
aI25137
aI41522
aI563
aI43785
aI8760
aI25147
aI25148
aI25149
aI33343
aI32864
aI22660
aI33347
aI41541
aI33350
aI7930
aI41546
aI33355
aI33357
aI33359
aI8784
aI41553
aI45155
aI33366
aI33367
aI41560
aI41561
aI43791
aI8796
aI41565
aI41566
aI36965
aI8801
aI8802
aI33379
aI612
aI32870
aI35482
aI41747
aI42428
aI25195
aI33388
aI8813
aI25201
aI33394
aI41587
aI33396
aI33399
aI41593
aI8826
aI33403
aI637
aI639
aI25216
aI25217
aI33410
aI643
aI25220
aI43798
aI648
aI45164
aI651
aI34242
aI41069
aI25234
aI42435
aI41070
aI33431
aI8857
aI41071
aI41628
aI669
aI36575
aI33441
aI25250
aI33450
aI25261
aI33455
aI33456
aI8881
aI6024
aI33459
aI33460
aI11207
aI41655
aI41656
aI40867
aI43807
aI33468
aI703
aI704
aI705
aI33474
aI33475
aI118
aI41671
aI41672
aI33481
aI33483
aI33484
aI33485
aI33489
aI33490
aI38759
aI725
aI36985
aI33501
aI25314
aI25315
aI41703
aI8937
aI746
aI41707
aI33516
aI33517
aI41710
aI41711
aI41712
aI755
aI33526
aI41719
aI33528
aI32895
aI25341
aI41731
aI41732
aI41733
aI8966
aI36993
aI41736
aI8970
aI8972
aI33549
aI8975
aI787
aI789
aI41750
aI33559
aI33565
aI25375
aI33568
aI45217
aI33575
aI34268
aI41770
aI33579
aI9004
aI41773
aI17885
aI25392
aI37649
aI25395
aI820
aI44414
aI33593
aI25403
aI41788
aI33597
aI33601
aI10939
aI42309
aI41803
aI41804
aI37005
aI17232
aI9041
aI33618
aI41811
aI41813
aI17238
aI33623
aI33624
aI33625
aI34399
aI33628
aI17246
aI33631
aI41824
aI41104
aI33637
aI17255
aI33645
aI33647
aI41843
aI33652
aI885
aI36855
aI33656
aI33657
aI17275
aI41852
aI33285
aI33662
aI41109
aI897
aI37014
aI33670
aI17288
aI42476
aI906
aI9099
aI3849
aI31554
aI17294
aI911
aI9104
aI33684
aI9305
aI33688
aI33689
aI33690
aI33691
aI33692
aI154
aI926
aI33695
aI33696
aI929
aI931
aI33700
aI33705
aI938
aI35656
aI946
aI17331
aI948
aI33719
aI33721
aI33722
aI43850
aI958
aI17343
aI33729
aI33730
aI41924
aI965
aI41926
aI41927
aI17737
aI41930
aI33739
aI33742
aI35661
aI41936
aI980
aI43854
aI39227
aI41943
aI9176
aI36892
aI33755
aI33756
aI41950
aI33760
aI17377
aI17379
aI40869
aI41559
aI28839
aI43858
aI38397
aI33776
aI17394
aI9203
aI33780
aI33781
aI33784
aI31572
aI38305
aI33788
aI45043
aI33792
aI33793
aI33794
aI17411
aI9221
aI1033
aI17418
aI42498
aI34405
aI34759
aI42001
aI1539
aI42006
aI35673
aI42008
aI33817
aI33818
aI42011
aI38770
aI42016
aI1057
aI41498
aI33829
aI42022
aI44226
aI36505
aI37042
aI33838
aI33839
aI42032
aI38408
aI17459
aI42037
aI17462
aI46601
aI33848
aI33851
aI1084
aI33853
aI1086
aI42047
aI42049
aI42051
aI17476
aI17479
aI33864
aI1100
aI33869
aI42062
aI45864
aI42064
aI40954
aI9298
aI33875
aI36044
aI32953
aI33880
aI33881
aI39045
aI42081
aI33892
aI33893
aI9320
aI21066
aI23399
aI42092
aI33903
aI33904
aI42097
aI33906
aI36069
aI33908
aI41150
aI43881
aI42104
aI9337
aI42109
aI17534
aI42111
aI33921
aI33922
aI42115
aI33924
aI32961
aI42121
aI42122
aI17548
aI42125
aI33935
aI9361
aI33938
aI1171
aI9365
aI33944
aI41156
aI9370
aI17564
aI33949
aI33950
aI31600
aI42146
aI33955
aI40684
aI33959
aI42524
aI9386
aI199
aI33964
aI42157
aI33966
aI33969
aI33971
aI33973
aI33975
aI9401
aI33980
aI12861
aI9407
aI45595
aI42177
aI1220
aI9413
aI42183
aI33992
aI33995
aI1228
aI1229
aI42190
aI33999
aI9425
aI37070
aI34008
aI1244
aI1245
aI17630
aI9439
aI34017
aI34018
aI34020
aI17638
aI17639
aI34024
aI42217
aI42323
aI34027
aI34030
aI31613
aI34032
aI1265
aI42226
aI34037
aI39050
aI34039
aI9464
aI34041
aI42234
aI23423
aI41471
aI17661
aI9470
aI45496
aI34049
aI34050
aI42245
aI34054
aI34057
aI34059
aI42252
aI45052
aI34063
aI9488
aI45272
aI34066
aI34068
aI38446
aI43752
aI42265
aI17690
aI34075
aI44199
aI17694
aI42272
aI9505
aI34082
aI34083
aI7701
aI35718
aI1318
aI42280
aI34089
aI34090
aI42283
aI9518
aI12592
aI10538
aI34099
aI4318
aI42295
aI34106
aI37087
aI17724
aI34110
aI20776
aI12047
aI17730
aI19685
aI34117
aI37416
aI42312
aI42313
aI17738
aI9547
aI17740
aI34125
aI34126
aI42322
aI34131
aI35726
aI42326
aI17751
aI42328
aI37092
aI1370
aI42332
aI42333
aI42334
aI34143
aI9569
aI23505
aI34147
aI42340
aI34149
aI43921
aI34154
aI45287
aI1391
aI17776
aI34161
aI9586
aI31635
aI9589
aI42358
aI41193
aI28051
aI38253
aI34170
aI42363
aI39381
aI8426
aI42366
aI34177
aI34179
aI34180
aI34181
aI42376
aI1418
aI1419
aI17804
aI12525
aI1424
aI17810
aI17811
aI40692
aI42390
aI42392
aI34202
aI42395
aI34204
aI42329
aI34207
aI14235
aI42403
aI42404
aI17830
aI38908
aI34216
aI34217
aI45330
aI34219
aI9646
aI43933
aI11505
aI34226
aI44345
aI34228
aI34229
aI10157
aI34233
aI1467
aI42330
aI9662
aI1471
aI9664
aI17858
aI17859
aI33874
aI9672
aI13900
aI1482
aI41207
aI34253
aI42446
aI9806
aI41209
aI34264
aI34266
aI9692
aI34269
aI34271
aI34276
aI43942
aI34278
aI34280
aI44241
aI34283
aI34284
aI42578
aI42483
aI42484
aI34294
aI34295
aI501
aI42489
aI4351
aI43946
aI1534
aI1537
aI9730
aI35755
aI42501
aI17928
aI9738
aI34315
aI1548
aI43949
aI34325
aI12548
aI34330
aI42523
aI34332
aI44116
aI9763
aI9764
aI9765
aI35761
aI34344
aI42588
aI42544
aI43425
aI42548
aI42549
aI8457
aI34360
aI34363
aI42558
aI39400
aI1605
aI42805
aI42568
aI34377
aI45881
aI34382
aI9807
aI42577
aI34386
aI42579
aI1622
aI13693
aI1624
aI34393
aI9819
aI34396
aI34397
aI34398
aI9829
aI42592
aI37136
aI1635
aI1637
aI34407
aI34409
aI42599
aI43427
aI35773
aI42608
aI34418
aI34420
aI18043
aI34430
aI34432
aI35776
aI42626
aI42603
aI18052
aI34439
aI42633
aI34442
aI34444
aI34445
aI34448
aI28952
aI43971
aI34453
aI34454
aI34457
aI34458
aI11513
aI46702
aI18078
aI42656
aI40701
aI9892
aI35782
aI34470
aI26903
aI42666
aI34475
aI42669
aI9902
aI34480
aI31688
aI42674
aI17515
aI42676
aI34487
aI45339
aI42612
aI18107
aI18108
aI11210
aI42687
aI9920
aI28960
aI9922
aI9924
aI34501
aI41249
aI9928
aI34507
aI41250
aI9934
aI34511
aI42704
aI34514
aI34515
aI9943
aI34521
aI34524
aI34526
aI34527
aI34529
aI43167
aI35793
aI42730
aI5757
aI34544
aI34545
aI46718
aI42745
aI18171
aI34556
aI42749
aI34561
aI34564
aI38529
aI42760
aI34569
aI34571
aI34573
aI42768
aI43992
aI42772
aI33070
aI44251
aI34585
aI34587
aI43994
aI34590
aI46155
aI45730
aI10017
aI18210
aI34595
aI34596
aI42789
aI34599
aI34603
aI34604
aI34605
aI34606
aI18228
aI31710
aI35523
aI10039
aI10040
aI10042
aI42812
aI18238
aI45365
aI44798
aI34626
aI34627
aI18244
aI43707
aI34630
aI34634
aI8503
aI26472
aI42889
aI42833
aI18259
aI42837
aI42838
aI18263
aI10073
aI42842
aI42843
aI34652
aI42845
aI42846
aI44005
aI34656
aI26466
aI33083
aI26468
aI10086
aI34449
aI34664
aI7323
aI42861
aI10094
aI34671
aI42864
aI10097
aI46739
aI26484
aI34678
aI10103
aI20795
aI26492
aI42877
aI26495
aI42880
aI43709
aI34691
aI42886
aI12612
aI11244
aI42891
aI33090
aI34707
aI42900
aI324
aI18330
aI44015
aI34718
aI42912
aI42913
aI42651
aI34725
aI34729
aI18347
aI26541
aI34734
aI42929
aI35827
aI42932
aI42933
aI45893
aI42937
aI34748
aI45906
aI10178
aI46439
aI42948
aI10183
aI34760
aI34761
aI31735
aI34764
aI26573
aI34766
aI34767
aI34771
aI34778
aI45391
aI35834
aI34784
aI34785
aI42662
aI34791
aI10220
aI34798
aI10706
aI10225
aI12627
aI26614
aI10233
aI26618
aI34813
aI43008
aI43011
aI36621
aI34822
aI26631
aI43018
aI43019
aI43020
aI26638
aI26641
aI34835
aI46766
aI34838
aI26647
aI43714
aI26650
aI34843
aI43038
aI27237
aI11525
aI34850
aI34851
aI10277
aI34854
aI34481
aI33116
aI34858
aI26670
aI26671
aI34866
aI38579
aI37214
aI43062
aI41260
aI34872
aI26682
aI41311
aI43068
aI41533
aI33511
aI36623
aI43074
aI43076
aI34885
aI41313
aI43080
aI43082
aI14007
aI10318
aI44807
aI33123
aI26708
aI26713
aI34906
aI43099
aI34908
aI23255
aI34910
aI34911
aI34912
aI26721
aI34914
aI26724
aI36897
aI4455
aI42353
aI43121
aI43125
aI34935
aI34939
aI43132
aI43133
aI43136
aI43138
aI10371
aI19440
aI30784
aI39022
aI34953
aI34957
aI43150
aI45421
aI43152
aI44056
aI43156
aI34965
aI43158
aI26776
aI43164
aI34974
aI5829
aI43354
aI8560
aI34978
aI43171
aI43175
aI10408
aI26795
aI34988
aI34989
aI34990
aI26799
aI34992
aI45427
aI34997
aI34998
aI24948
aI35871
aI43196
aI39355
aI35009
aI35010
aI35012
aI35014
aI35016
aI35018
aI35019
aI35021
aI35022
aI26832
aI4472
aI35875
aI43223
aI26840
aI35033
aI4474
aI42084
aI26850
aI37243
aI35045
aI35046
aI42357
aI22971
aI15399
aI26860
aI35053
aI43246
aI35056
aI11304
aI10483
aI45438
aI26870
aI35065
aI43258
aI10491
aI35882
aI43262
aI35071
aI10497
aI35078
aI43271
aI43272
aI26891
aI35086
aI43279
aI43281
aI35091
aI35092
aI35095
aI19503
aI35101
aI10529
aI13444
aI35107
aI26917
aI35110
aI43304
aI42716
aI35114
aI35115
aI22719
aI35119
aI37256
aI35891
aI35124
aI35126
aI35129
aI42719
aI35132
aI41354
aI33555
aI35136
aI36841
aI45079
aI43334
aI35143
aI24675
aI43337
aI35147
aI35148
aI26958
aI35151
aI10577
aI35157
aI10582
aI44089
aI35161
aI35162
aI33167
aI26972
aI43357
aI37264
aI43725
aI35171
aI35174
aI43368
aI26985
aI26986
aI43371
aI43372
aI31805
aI35184
aI43377
aI43378
aI30632
aI44094
aI46645
aI35193
aI35198
aI10623
aI35200
aI43393
aI43394
aI43396
aI43398
aI35209
aI35210
aI10636
aI44098
aI35214
aI35215
aI10643
aI46031
aI43413
aI35222
aI44818
aI43061
aI35229
aI43424
aI35233
aI4507
aI35237
aI43430
aI10664
aI43436
aI43442
aI43446
aI43448
aI35257
aI27067
aI10685
aI35264
aI43458
aI35267
aI35269
aI10694
aI20897
aI27082
aI38647
aI43468
aI41378
aI10702
aI43473
aI35282
aI39480
aI22179
aI35287
aI4516
aI37285
aI42306
aI43492
aI27109
aI27111
aI27112
aI10730
aI27117
aI43503
aI35317
aI35318
aI43512
aI10745
aI35322
aI43516
aI43519
aI43523
aI10756
aI31830
aI35337
aI43531
aI35820
aI20909
aI35344
aI10770
aI43540
aI29102
aI35350
aI7257
aI43544
aI43545
aI43546
aI35356
aI27167
aI35360
aI35361
aI44123
aI35365
aI35367
aI27178
aI43564
aI41394
aI35375
aI35376
aI35377
aI35379
aI35380
aI43573
aI42641
aI43577
aI43580
aI27198
aI10817
aI41823
aI43589
aI27206
aI27210
aI37186
aI35406
aI37304
aI35410
aI27219
aI35412
aI84565
aI45497
aI27226
aI27227
aI2652
aI27230
aI27749
aI35424
aI43617
aI14273
aI10851
aI35429
aI27238
aI43624
aI27242
aI27247
aI43632
aI43633
aI27250
aI35445
aI27254
aI27255
aI43641
aI43642
aI27261
aI35454
aI43647
aI27265
aI35458
aI2692
aI10885
aI27270
aI27271
aI37188
aI34733
aI27274
aI42371
aI27278
aI43665
aI1531
aI27283
aI27285
aI43670
aI27287
aI35480
aI27290
aI27291
aI35486
aI35487
aI35488
aI27297
aI43682
aI43683
aI27300
aI35494
aI10920
aI27306
aI27308
aI43694
aI35503
aI27313
aI27314
aI27315
aI45373
aI27318
aI10936
aI35513
aI35514
aI35515
aI35517
aI27327
aI35522
aI12747
aI43718
aI34593
aI27337
aI44151
aI41282
aI34594
aI35536
aI27345
aI38691
aI35540
aI27349
aI35542
aI41120
aI35545
aI27354
aI37327
aI43741
aI35550
aI35556
aI27365
aI35558
aI10983
aI37464
aI2794
aI35563
aI35565
aI35567
aI2800
aI43762
aI43763
aI35572
aI45682
aI5929
aI35577
aI35579
aI35582
aI27391
aI27393
aI46289
aI2819
aI43780
aI35589
aI2823
aI38829
aI27402
aI2827
aI43788
aI43789
aI10187
aI27407
aI27408
aI27409
aI35602
aI12915
aI35605
aI27414
aI43800
aI27417
aI27418
aI35611
aI27421
aI27423
aI35618
aI35620
aI43813
aI43814
aI11049
aI43818
aI43819
aI41558
aI11053
aI27438
aI27439
aI46741
aI27442
aI43828
aI27446
aI44559
aI11065
aI33247
aI43836
aI35647
aI43840
aI27460
aI38831
aI35654
aI27464
aI10189
aI27469
aI35662
aI23693
aI27472
aI27474
aI27475
aI27476
aI27477
aI35670
aI35671
aI27480
aI27481
aI43867
aI18234
aI43873
aI35682
aI35683
aI43876
aI27496
aI22332
aI27499
aI27500
aI43885
aI43887
aI15507
aI45545
aI27512
aI43897
aI43898
aI27515
aI35713
aI35715
aI11141
aI27526
aI41452
aI27799
aI43917
aI27534
aI35727
aI27536
aI35729
aI35730
aI27539
aI43924
aI43925
aI43926
aI27543
aI27545
aI46556
aI35739
aI35994
aI35742
aI2802
aI27553
aI27555
aI35748
aI27558
aI35751
aI44188
aI35754
aI27563
aI41458
aI27569
aI27573
aI27574
aI11192
aI43961
aI31197
aI43964
aI27581
aI41772
aI43967
aI27584
aI19393
aI34635
aI27590
aI35783
aI27594
aI43980
aI27597
aI35790
aI27599
aI19409
aI35794
aI27607
aI35800
aI41161
aI27610
aI36381
aI35805
aI35807
aI45383
aI27619
aI27621
aI27622
aI35815
aI45258
aI19434
aI27627
aI27628
aI27630
aI27631
aI27632
aI31912
aI11251
aI11253
aI35830
aI44024
aI11257
aI11258
aI27643
aI44202
aI27646
aI27648
aI44203
aI11268
aI39388
aI27662
aI27663
aI19474
aI33283
aI45793
aI35861
aI27670
aI27672
aI35865
aI44058
aI44060
aI35869
aI44062
aI27679
aI44064
aI35873
aI27683
aI41478
aI35878
aI36017
aI27688
aI26460
aI27690
aI11307
aI44076
aI35885
aI44079
aI44080
aI27698
aI27699
aI44086
aI35896
aI35897
aI35899
aI35900
aI35902
aI10080
aI35906
aI27715
aI19524
aI44102
aI35913
aI11338
aI35915
aI35916
aI44109
aI35918
aI44112
aI35922
aI14179
aI27732
aI11349
aI44118
aI27736
aI11353
aI44122
aI41487
aI44218
aI35935
aI11361
aI11365
aI25105
aI27753
aI1101
aI12678
aI35949
aI11374
aI27760
aI27761
aI35954
aI11379
aI35959
aI44152
aI19581
aI35968
aI46201
aI45590
aI35974
aI38764
aI35980
aI27789
aI27791
aI44176
aI27795
aI19606
aI19607
aI19610
aI35995
aI11420
aI27805
aI35999
aI27808
aI27809
aI33387
aI27812
aI27813
aI38769
aI19624
aI36009
aI11434
aI27819
aI27821
aI27822
aI11440
aI27825
aI27827
aI36023
aI44216
aI44217
aI11450
aI27835
aI27836
aI27838
aI36033
aI27842
aI19655
aI11468
aI27850
aI27852
aI33314
aI27855
aI44240
aI11473
aI27859
aI27860
aI27862
aI27865
aI27867
aI27869
aI27870
aI36063
aI27872
aI36066
aI44846
aI27877
aI36070
aI27857
aI34684
aI45727
aI44270
aI27888
aI27889
aI27894
aI19703
aI23764
aI44283
aI27900
aI11523
aI36054
aI11527
aI27912
aI27914
aI27916
aI42685
aI36112
aI36113
aI384
aI27923
aI19732
aI27926
aI27927
aI27929
aI36123
aI27934
aI27937
aI43757
aI36135
aI26973
aI11565
aI36144
aI30600
aI44338
aI11571
aI31966
aI44342
aI27959
aI36152
aI19769
aI11578
aI44347
aI27964
aI27966
aI44351
aI12734
aI44256
aI36162
aI27971
aI27972
aI44357
aI36166
aI27975
aI36168
aI11593
aI27978
aI11596
aI44366
aI27983
aI11600
aI27985
aI43213
aI27987
aI6030
aI36182
aI44375
aI27992
aI27993
aI38799
aI46559
aI27999
aI28000
aI33339
aI11621
aI28006
aI36199
aI11625
aI44394
aI34212
aI28015
aI44402
aI28019
aI28020
aI23591
aI44265
aI36216
aI11641
aI28026
aI36220
aI44413
aI36222
aI44415
aI28032
aI44419
aI36228
aI36230
aI36231
aI11656
aI28042
aI44428
aI28045
aI36238
aI28049
aI36243
aI36245
aI28054
aI11673
aI42906
aI32577
aI12869
aI28064
aI36258
aI41579
aI44452
aI28070
aI28071
aI19880
aI11689
aI28074
aI45639
aI36271
aI28082
aI36275
aI28084
aI28086
aI45641
aI44472
aI28090
aI28092
aI28093
aI19904
aI19905
aI19906
aI28100
aI11718
aI11719
aI28104
aI28105
aI19914
aI45668
aI28110
aI45645
aI28113
aI19923
aI37454
aI31993
aI42359
aI36315
aI28124
aI28125
aI28126
aI28128
aI18027
aI44518
aI36327
aI44520
aI36330
aI28140
aI28143
aI36336
aI19953
aI19954
aI28147
aI28149
aI28150
aI28151
aI28154
aI36347
aI1201
aI45653
aI28160
aI15616
aI44546
aI28164
aI25174
aI28170
aI36363
aI19983
aI36368
aI28177
aI17209
aI28180
aI28181
aI38855
aI44569
aI22447
aI28189
aI28191
aI11808
aI28193
aI33127
aI36388
aI28197
aI36390
aI30641
aI28202
aI11819
aI36398
aI20016
aI28211
aI28215
aI28216
aI44601
aI28218
aI45663
aI28220
aI36413
aI44606
aI28223
aI11841
aI44610
aI28227
aI20036
aI41020
aI609
aI28232
aI6589
aI32310
aI36428
aI44622
aI7437
aI20048
aI41571
aI28244
aI28245
aI41572
aI20058
aI28251
aI36444
aI20062
aI28255
aI11873
aI28261
aI28262
aI44305
aI20005
aI37479
aI44657
aI19731
aI28276
aI28278
aI28280
aI28283
aI28284
aI11901
aI20095
aI36480
aI11905
aI36482
aI11907
aI36484
aI36118
aI41041
aI38849
aI41580
aI45415
aI44684
aI42946
aI28302
aI28304
aI40669
aI36500
aI44693
aI28310
aI28312
aI28313
aI46452
aI36509
aI44703
aI36513
aI28322
aI44707
aI28324
aI28326
aI36519
aI11946
aI28331
aI41586
aI30664
aI11954
aI28339
aI42952
aI28342
aI28343
aI41861
aI28345
aI28346
aI38315
aI20158
aI11969
aI34763
aI11974
aI28360
aI36554
aI28363
aI28366
aI6093
aI28370
aI36567
aI11992
aI11993
aI28379
aI36572
aI28382
aI28383
aI13022
aI41595
aI44772
aI28389
aI28393
aI28395
aI12012
aI44784
aI44785
aI12018
aI36595
aI13828
aI36597
aI28409
aI21119
aI28413
aI36606
aI36608
aI28420
aI28421
aI36614
aI41601
aI3848
aI33953
aI28426
aI28428
aI12045
aI28431
aI44817
aI12050
aI3859
aI36631
aI4493
aI12059
aI12061
aI36638
aI12064
aI28450
aI28451
aI45138
aI3878
aI19761
aI44047
aI6108
aI28459
aI44845
aI20270
aI36656
aI3890
aI496
aI40774
aI12085
aI42138
aI28473
aI12090
aI36668
aI28478
aI44863
aI44864
aI3905
aI44010
aI44868
aI28486
aI20298
aI28491
aI20300
aI12109
aI36686
aI41613
aI19768
aI44882
aI28499
aI44884
aI36693
aI36694
aI15673
aI28506
aI15674
aI44894
aI41321
aI28513
aI44898
aI28519
aI3945
aI28523
aI3949
aI28526
aI44913
aI28533
aI36726
aI44919
aI36728
aI20345
aI28538
aI28539
aI3965
aI44926
aI36735
aI3969
aI3971
aI43792
aI36741
aI20358
aI36743
aI36744
aI34796
aI41868
aI37527
aI44940
aI44943
aI37528
aI44355
aI36756
aI36757
aI36758
aI20375
aI19780
aI36762
aI28775
aI28573
aI28576
aI28579
aI44965
aI44968
aI12201
aI44970
aI28587
aI41817
aI28590
aI28591
aI4016
aI44360
aI4018
aI20404
aI28597
aI28598
aI44984
aI28603
aI32074
aI12222
aI38991
aI28608
aI20418
aI12227
aI34806
aI12230
aI36807
aI20424
aI36811
aI45004
aI37538
aI28622
aI12239
aI22520
aI4050
aI28627
aI36820
aI28629
aI12246
aI38905
aI45019
aI37779
aI10234
aI36830
aI36831
aI45024
aI20449
aI28642
aI20453
aI42810
aI20457
aI28650
aI27141
aI28653
aI28654
aI12271
aI28657
aI28658
aI36179
aI28661
aI45046
aI28663
aI20473
aI4091
aI4092
aI42963
aI19797
aI30720
aI36866
aI12294
aI12295
aI36875
aI28685
aI28686
aI28687
aI28688
aI28693
aI28695
aI12314
aI28699
aI28700
aI28701
aI28703
aI28705
aI25243
aI28707
aI4132
aI4133
aI28715
aI4140
aI45746
aI4142
aI45103
aI43783
aI36913
aI28722
aI12339
aI4151
aI28728
aI41652
aI12346
aI12347
aI45116
aI36926
aI20546
aI36931
aI36933
aI28742
aI28743
aI45128
aI12363
aI14347
aI36943
aI36946
aI36947
aI45141
aI36950
aI12378
aI28763
aI4189
aI28767
aI45154
aI28771
aI20581
aI28774
aI12391
aI28777
aI4203
aI28780
aI28782
aI20591
aI4209
aI45171
aI28790
aI36201
aI28792
aI4217
aI39472
aI36988
aI28797
aI20606
aI45183
aI20608
aI28801
aI44395
aI45188
aI45189
aI28811
aI28812
aI41666
aI37006
aI4240
aI28818
aI36198
aI45205
aI28822
aI37015
aI37016
aI45209
aI37018
aI36207
aI28829
aI28830
aI33477
aI28832
aI37240
aI45218
aI37029
aI12454
aI20647
aI32871
aI28846
aI38941
aI28850
aI4275
aI37048
aI11636
aI28858
aI28859
aI28860
aI21194
aI12479
aI28864
aI22560
aI28866
aI28868
aI22511
aI45256
aI28874
aI44407
aI28878
aI45264
aI28884
aI45270
aI44409
aI28888
aI4313
aI37082
aI45971
aI19834
aI28894
aI28895
aI12512
aI45282
aI28899
aI28900
aI28902
aI37095
aI45288
aI23932
aI28906
aI28907
aI35333
aI13010
aI4335
aI28913
aI28914
aI37107
aI28916
aI37109
aI43049
aI35879
aI28927
aI45312
aI44416
aI37122
aI28931
aI28932
aI28934
aI45856
aI37130
aI28940
aI45326
aI45327
aI28944
aI37137
aI28946
aI20755
aI45332
aI37141
aI20758
aI29401
aI20760
aI33581
aI43055
aI12573
aI4384
aI28961
aI45347
aI28965
aI28966
aI37159
aI28968
aI37161
aI4394
aI12587
aI28972
aI6708
aI37167
aI28976
aI30698
aI37171
aI28981
aI28982
aI37179
aI20797
aI28990
aI28991
aI28993
aI28994
aI45379
aI28996
aI45381
aI42258
aI20810
aI43063
aI43947
aI4429
aI45390
aI11661
aI29008
aI29009
aI20818
aI33507
aI29012
aI37205
aI12630
aI30777
aI37208
aI20825
aI12635
aI43066
aI12638
aI29023
aI45408
aI29025
aI29026
aI29027
aI20836
aI4453
aI29031
aI4458
aI25319
aI45420
aI15762
aI34519
aI43069
aI12656
aI45800
aI29042
aI29043
aI37236
aI29045
aI20854
aI33513
aI29048
aI12666
aI4475
aI45436
aI45158
aI20862
aI29055
aI20865
aI33361
aI37251
aI4484
aI20869
aI37254
aI30785
aI29064
aI45804
aI37258
aI37261
aI37262
aI29072
aI20999
aI44886
aI12693
aI37270
aI4503
aI37272
aI29082
aI37275
aI45469
aI29086
aI12703
aI37280
aI4513
aI37282
aI37284
aI4517
aI10516
aI20903
aI29096
aI37289
aI43079
aI44614
aI29101
aI12718
aI45833
aI29104
aI30792
aI29107
aI36254
aI37303
aI29112
aI37620
aI58854
aI45499
aI45500
aI29117
aI29118
aI45503
aI12736
aI4545
aI29123
aI37318
aI12743
aI20936
aI29129
aI12746
aI29131
aI37325
aI37326
aI29135
aI37332
aI34894
aI37336
aI37337
aI29147
aI4572
aI37343
aI37345
aI29155
aI37348
aI44454
aI45544
aI29161
aI29162
aI37357
aI45803
aI32168
aI37363
aI45559
aI29176
aI29177
aI29179
aI29181
aI37376
aI45824
aI39434
aI29187
aI37380
aI43239
aI12807
aI37384
aI37385
aI38999
aI45580
aI29199
aI29200
aI37393
aI37394
aI45588
aI46527
aI37398
aI39001
aI42981
aI29213
aI45601
aI21026
aI39003
aI29220
aI37413
aI44003
aI29223
aI29224
aI45610
aI45611
aI37422
aI12847
aI41345
aI45620
aI24963
aI29238
aI29239
aI37432
aI44468
aI37434
aI37436
aI29245
aI29247
aI12864
aI37443
aI19894
aI29254
aI12871
aI780
aI37450
aI45643
aI43106
aI29262
aI37458
aI37460
aI37461
aI29272
aI10340
aI41892
aI39437
aI37469
aI29279
aI45666
aI29284
aI45669
aI21094
aI29287
aI29290
aI37485
aI45678
aI37489
aI37675
aI29299
aI15806
aI37494
aI29303
aI45688
aI29306
aI29307
aI29308
aI29309
aI45694
aI29311
aI45696
aI44480
aI37506
aI29315
aI37512
aI29323
aI37516
aI37518
aI29329
aI37523
aI38075
aI36966
aI13081
aI21144
aI29337
aI37531
aI12956
aI29341
aI37534
aI29343
aI37537
aI29346
aI37539
aI29348
aI29349
aI45734
aI37543
aI29353
aI29354
aI29356
aI12974
aI44488
aI37554
aI29363
aI21278
aI29367
aI37561
aI45477
aI21279
aI37566
aI37567
aI29376
aI13088
aI29380
aI37573
aI12999
aI29384
aI37577
aI29386
aI37580
aI29389
aI29391
aI39032
aI39476
aI37587
aI45782
aI29399
aI37592
aI13017
aI37596
aI42804
aI29406
aI45791
aI29409
aI37604
aI21222
aI44497
aI37608
aI29418
aI29419
aI13036
aI42988
aI37614
aI29423
aI42695
aI45809
aI37618
aI37619
aI29428
aI37623
aI45532
aI29437
aI45822
aI29439
aI37632
aI37635
aI29446
aI45831
aI29449
aI37643
aI46405
aI41898
aI21264
aI32216
aI21266
aI21270
aI21273
aI37658
aI37662
aI29471
aI29472
aI33584
aI45859
aI37668
aI45862
aI9009
aI29480
aI29481
aI13099
aI45874
aI36317
aI37682
aI41779
aI45876
aI29493
aI29494
aI33588
aI37690
aI45883
aI29501
aI29502
aI13119
aI36320
aI29506
aI37686
aI37702
aI37704
aI39052
aI45719
aI29517
aI45904
aI42173
aI13138
aI21332
aI37717
aI21334
aI37689
aI45912
aI21337
aI22533
aI45882
aI37728
aI41787
aI45927
aI45720
aI45931
aI45932
aI39059
aI37752
aI39060
aI21371
aI37757
aI21375
aI37762
aI37764
aI37767
aI45961
aI37771
aI37772
aI45968
aI13203
aI37781
aI41114
aI45977
aI37787
aI37791
aI45984
aI37794
aI37795
aI21414
aI45992
aI37806
aI37312
aI13232
aI36339
aI46004
aI46005
aI46006
aI45897
aI13240
aI46010
aI579
aI37821
aI46015
aI13248
aI46017
aI46018
aI37829
aI24802
aI46029
aI37709
aI46032
aI21457
aI21458
aI41359
aI46039
aI6308
aI42151
aI38714
aI39077
aI37856
aI46049
aI45724
aI40814
aI37864
aI46058
aI46059
aI37868
aI37869
aI13294
aI37541
aI46186
aI46070
aI44088
aI37880
aI37716
aI13306
aI21500
aI13312
aI40815
aI37892
aI41814
aI46088
aI43180
aI37898
aI21517
aI37907
aI21527
aI37914
aI44362
aI44549
aI21536
aI46113
aI37923
aI42180
aI24070
aI46119
aI37724
aI37932
aI43817
aI45815
aI21552
aI46129
aI8901
aI21555
aI46132
aI46134
aI37944
aI37947
aI13372
aI10421
aI46144
aI46148
aI37957
aI39095
aI45271
aI37965
aI44099
aI15217
aI37094
aI37973
aI46169
aI28175
aI37981
aI21599
aI37985
aI24724
aI37990
aI46184
aI37545
aI21610
aI13420
aI13421
aI46190
aI46191
aI13427
aI45446
aI37242
aI21624
aI19988
aI30911
aI38364
aI45930
aI13438
aI19989
aI38018
aI5926
aI21636
aI38021
aI38022
aI38024
aI46217
aI13452
aI43202
aI21650
aI38035
aI6722
aI32281
aI46234
aI38046
aI38047
aI28187
aI21668
aI38053
aI38057
aI6309
aI13487
aI43208
aI38067
aI43259
aI46266
aI7711
aI38076
aI21694
aI46272
aI46273
aI43211
aI38084
aI38089
aI13516
aI46285
aI22733
aI17272
aI43345
aI46295
aI38109
aI36185
aI13535
aI43216
aI46306
aI13539
aI45187
aI44582
aI21734
aI35025
aI46315
aI36014
aI21743
aI13552
aI38129
aI45234
aI43219
aI46324
aI21749
aI38135
aI39124
aI38138
aI44586
aI21764
aI21766
aI33665
aI46344
aI21769
aI21773
aI7725
aI35032
aI44499
aI46355
aI38166
aI21783
aI39098
aI38171
aI17585
aI38174
aI38175
aI42659
aI38179
aI38180
aI38181
aI13606
aI36733
aI38186
aI9096
aI24483
aI38198
aI21815
aI46393
aI41866
aI39136
aI38210
aI38211
aI21828
aI21829
aI908
aI38220
aI13646
aI33677
aI21841
aI38227
aI34352
aI42590
aI38917
aI6456
aI36698
aI45867
aI44373
aI41918
aI46440
aI43463
aI21867
aI21869
aI46447
aI46448
aI21875
aI44827
aI13685
aI38263
aI13689
aI38268
aI21885
aI38270
aI42219
aI39147
aI13702
aI28225
aI43244
aI46475
aI38284
aI38286
aI44920
aI38291
aI38296
aI21915
aI38302
aI44435
aI13729
aI39465
aI37010
aI14642
aI38316
aI46513
aI43830
aI13752
aI45983
aI38332
aI46525
aI21951
aI46528
aI30966
aI13766
aI38346
aI46539
aI38348
aI21968
aI38353
aI38354
aI46547
aI40968
aI21974
aI30969
aI5592
aI38361
aI5595
aI5596
aI15462
aI38367
aI5600
aI21987
aI45990
aI38374
aI46569
aI38378
aI46571
aI5614
aI21999
aI22000
aI38389
aI38390
aI36436
aI22013
aI44629
aI22020
aI38405
aI43265
aI5640
aI44667
aI46602
aI13835
aI43833
aI13843
aI38421
aI22041
aI44379
aI37807
aI13852
aI15962
aI46622
aI46626
aI36443
aI5668
aI38437
aI46630
aI41905
aI38441
aI5674
aI38445
aI22062
aI46639
aI38450
aI28254
aI46647
aI38458
aI46654
aI22080
aI46659
aI5701
aI44641
aI38472
aI46665
aI38476
aI5711
aI46677
aI22105
aI46682
aI46685
aI39184
aI46011
aI20070
aI38505
aI46698
aI38508
aI39186
aI38510
aI38514
aI43283
aI44438
aI38517
aI46710
aI13943
aI45084
aI13945
aI38524
aI38525
aI38526
aI46719
aI38528
aI1010
aI5762
aI46728
aI22807
aI38540
aI13966
aI38545
aI38546
aI38547
aI38548
aI38549
aI38554
aI39037
aI46749
aI38563
aI45202
aI38571
aI38572
aI38574
aI14003
aI14005
aI739
aI11892
aI38586
aI38587
aI22204
aI38589
aI38590
aI38591
aI5824
aI14017
aI38594
aI38595
aI22212
aI22213
aI38598
aI40683
aI5842
aI38612
aI5845
aI35929
aI14040
aI14041
aI38618
aI5851
aI38610
aI39205
aI36475
aI38628
aI43302
aI35384
aI38632
aI11900
aI38639
aI38640
aI38642
aI14068
aI38645
aI37294
aI38648
aI38650
aI38653
aI14079
aI14080
aI38657
aI38659
aI44114
aI5897
aI38666
aI44387
aI44674
aI5904
aI38674
aI32387
aI14102
aI33753
aI5912
aI38682
aI37568
aI22302
aI38687
aI38688
aI38689
aI5922
aI14115
aI38692
aI22309
aI38694
aI21852
aI38697
aI38698
aI14123
aI31026
aI38702
aI37296
aI30516
aI14133
aI38710
aI5943
aI38712
aI30522
aI14140
aI14141
aI30528
aI30531
aI5958
aI30535
aI41934
aI5962
aI5963
aI38732
aI30542
aI40589
aI30544
aI30545
aI30546
aI33763
aI43844
aI38752
aI38753
aI22371
aI22372
aI30567
aI38760
aI43324
aI22378
aI41959
aI14188
aI22135
aI38767
aI30577
aI30578
aI38777
aI30586
aI43327
aI30591
aI31843
aI80
aI6021
aI22408
aI22409
aI6026
aI14220
aI30606
aI30607
aI30608
aI44696
aI38802
aI14659
aI11929
aI38808
aI6043
aI38812
aI14237
aI34299
aI30624
aI6049
aI30628
aI38821
aI22440
aI32412
aI14250
aI38827
aI38828
aI30637
aI30639
aI46302
aI22449
aI30642
aI1011
aI39157
aI46575
aI30648
aI30650
aI45484
aI38844
aI38848
aI30657
aI42976
aI30663
aI14280
aI30667
aI30668
aI11938
aI38865
aI36483
aI30677
aI30678
aI6103
aI45485
aI30684
aI37882
aI30686
aI30687
aI30688
aI38883
aI38884
aI6118
aI22503
aI30696
aI41980
aI38890
aI14315
aI30701
aI30703
aI30706
aI30708
aI30710
aI30712
aI34302
aI30716
aI30718
aI6144
aI46080
aI44715
aI14341
aI41985
aI36212
aI30730
aI30731
aI38924
aI41986
aI46359
aI30737
aI30738
aI30739
aI38933
aI22550
aI30744
aI30745
aI30746
aI30749
aI30751
aI14368
aI30753
aI30754
aI35163
aI30756
aI38950
aI40625
aI30761
aI14378
aI30766
aI30767
aI30768
aI30769
aI7515
aI30772
aI30773
aI22582
aI30775
aI14393
aI38972
aI46090
aI30782
aI38975
aI22592
aI6209
aI38980
aI6215
aI14408
aI30793
aI14412
aI38989
aI38990
aI30799
aI30803
aI30807
aI6233
aI22618
aI30811
aI39006
aI30817
aI30818
aI30820
aI30821
aI39014
aI30824
aI39017
aI30826
aI39271
aI22636
aI30830
aI40637
aI6259
aI30837
aI30840
aI45857
aI31082
aI30849
aI30852
aI30853
aI14470
aI14471
aI46582
aI35306
aI37911
aI30860
aI30862
aI39055
aI22672
aI28355
aI30868
aI39062
aI30872
aI30873
aI39066
aI39067
aI22684
aI17434
aI22688
aI43855
aI14500
aI22693
aI45713
aI6313
aI14506
aI6315
aI39085
aI6318
aI22703
aI39088
aI39089
aI14518
aI30903
aI30904
aI24761
aI6330
aI45329
aI36218
aI6334
aI6335
aI43856
aI44747
aI22728
aI30925
aI14302
aI45125
aI14547
aI14548
aI39125
aI30935
aI34855
aI30938
aI39133
aI14560
aI39139
aI30948
aI39256
aI30955
aI14572
aI20178
aI39293
aI22768
aI39153
aI30963
aI30964
aI30965
aI6390
aI30967
aI19853
aI6393
aI30971
aI22781
aI30974
aI39171
aI30980
aI30981
aI30983
aI46124
aI35202
aI6416
aI33493
aI22803
aI30996
aI41131
aI30998
aI30999
aI31001
aI39194
aI9263
aI31004
aI23946
aI22815
aI22818
aI31011
aI31013
aI39206
aI31015
aI6444
aI31021
aI22830
aI39215
aI31024
aI6450
aI39219
aI39222
aI31031
aI39224
aI14651
aI31036
aI31037
aI31038
aI31040
aI14731
aI31044
aI31047
aI6473
aI31050
aI39243
aI31052
aI31053
aI46043
aI14671
aI31056
aI31058
aI31061
aI31064
aI39257
aI46589
aI46545
aI6495
aI31072
aI31076
aI39270
aI14695
aI39272
aI42044
aI14698
aI31084
aI22893
aI39284
aI31094
aI36585
aI14712
aI37951
aI14716
aI31101
aI31102
aI14719
aI31104
aI31106
aI31107
aI22916
aI14725
aI42355
aI39305
aI31115
aI22926
aI31119
aI31124
aI31127
aI39320
aI14747
aI6556
aI39325
aI16083
aI31861
aI39329
aI14754
aI14755
aI39332
aI31141
aI39334
aI31143
aI9700
aI31149
aI39342
aI31151
aI14769
aI31155
aI6580
aI39350
aI31161
aI31163
aI31165
aI31167
aI31171
aI31173
aI39367
aI17484
aI45563
aI31180
aI22989
aI31182
aI31183
aI31187
aI14804
aI31189
aI31190
aI31191
aI6617
aI40592
aI31196
aI23005
aI31200
aI46160
aI6626
aI36603
aI14820
aI31208
aI31211
aI31212
aI1106
aI14831
aI43432
aI31219
aI32510
aI31225
aI6650
aI14843
aI39420
aI44685
aI39427
aI31236
aI39430
aI31239
aI46322
aI6223
aI14861
aI31246
aI31250
aI31253
aI31255
aI31261
aI36613
aI39457
aI31267
aI14885
aI41569
aI31272
aI31273
aI6698
aI31275
aI39468
aI46173
aI31280
aI23089
aI31282
aI14899
aI31284
aI31285
aI39478
aI6711
aI33230
aI31290
aI31295
aI42080
aI39490
aI23107
aI43869
aI39496
aI36620
aI14608
aI31307
aI31309
aI31310
aI31311
aI33977
aI31316
aI31317
aI14934
aI31319
aI31321
aI31323
aI31325
aI31327
aI39520
aI42506
aI31331
aI6756
aI31333
aI46363
aI31335
aI31336
aI39533
aI31343
aI31345
aI40723
aI31350
aI31351
aI31352
aI39545
aI31354
aI39548
aI31357
aI31358
aI31359
aI6787
aI14984
aI40727
aI31376
aI39363
aI31380
aI31385
aI39578
aI31387
aI39581
aI39582
aI31391
aI31392
aI39585
aI23203
aI46600
aI31401
aI31402
aI10695
aI31404
aI31407
aI31409
aI32143
aI31413
aI31414
aI15032
aI40757
aI38690
aI31420
aI31421
aI42101
aI44107
aI31426
aI31430
aI23239
aI15048
aI31433
aI31435
aI23244
aI40738
aI6862
aI15059
aI46056
aI15062
aI38009
aI31448
aI23257
aI31450
aI23260
aI43874
aI31455
aI37521
aI31457
aI23266
aI31459
aI35418
aI31461
aI31463
aI36647
aI23277
aI6898
aI6899
aI31479
aI31480
aI15098
aI37144
aI41420
aI31487
aI23297
aI41693
aI31491
aI10388
aI42113
aI31497
aI6923
aI6924
aI42114
aI35965
aI6928
aI31506
aI23316
aI31509
aI6936
aI38020
aI31514
aI45240
aI31520
aI31524
aI88873
aI31530
aI23339
aI36658
aI31535
aI31537
aI31540
aI41618
aI41422
aI6969
aI31546
aI31548
aI31551
aI6978
aI31555
aI39513
aI6984
aI38028
aI31566
aI31569
aI39395
aI23380
aI23382
aI36665
aI42787
aI24363
aI31579
aI7004
aI31581
aI35301
aI31584
aI15201
aI7010
aI45788
aI44237
aI31591
aI7018
aI38034
aI15216
aI23409
aI31602
aI31603
aI15225
aI23421
aI7038
aI15231
aI40768
aI45789
aI44019
aI8001
aI39404
aI43501
aI31632
aI31633
aI23443
aI4340
aI31637
aI23449
aI46178
aI39407
aI15261
aI31646
aI41971
aI7075
aI31653
aI33948
aI42517
aI31668
aI41699
aI7096
aI64442
aI46239
aI36682
aI43509
aI23489
aI12107
aI31685
aI31687
aI7112
aI31691
aI23504
aI7121
aI31700
aI31703
aI31704
aI23513
aI23514
aI31709
aI23518
aI23035
aI15332
aI31721
aI31723
aI31726
aI31729
aI31732
aI7159
aI26971
aI31739
aI31740
aI15358
aI31743
aI15360
aI23553
aI37664
aI15364
aI7173
aI31753
aI15370
aI44887
aI23234
aI23569
aI31765
aI37255
aI43339
aI15389
aI31775
aI31776
aI40795
aI14854
aI31783
aI31785
aI45399
aI11424
aI31792
aI43067
aI23602
aI31797
aI7222
aI7223
aI31801
aI15418
aI44895
aI7229
aI42165
aI31808
aI42522
aI31812
aI31815
aI31819
aI10765
aI23632
aI46264
aI31826
aI31827
aI31828
aI39438
aI15446
aI17593
aI23641
aI15454
aI44978
aI7267
aI7269
aI31846
aI15463
aI31848
aI17596
aI31851
aI6674
aI31855
aI31857
aI31860
aI15477
aI15478
aI31868
aI31869
aI10773
aI31872
aI31875
aI31876
aI43542
aI15494
aI31880
aI31881
aI14155
aI31883
aI15501
aI7310
aI36717
aI45798
aI44239
aI31891
aI31893
aI31894
aI7319
aI31896
aI33988
aI31898
aI8047
aI7324
aI15518
aI7328
aI45603
aI23717
aI45392
aI31911
aI15528
aI15532
aI31917
aI31919
aI7346
aI15539
aI15541
aI41162
aI23737
aI31930
aI15547
aI46345
aI7357
aI31935
aI31936
aI35434
aI31942
aI38092
aI31946
aI23758
aI28039
aI31952
aI31953
aI7380
aI31957
aI31960
aI45403
aI7386
aI42191
aI31964
aI3962
aI7390
aI31967
aI23776
aI31969
aI15586
aI31971
aI31972
aI31973
aI38097
aI7401
aI31981
aI45698
aI28541
aI31985
aI31986
aI38709
aI31990
aI31991
aI23800
aI15609
aI22615
aI40831
aI39166
aI32000
aI32001
aI7428
aI7430
aI44929
aI32009
aI32010
aI34618
aI32012
aI32013
aI32014
aI32015
aI32643
aI23829
aI15639
aI23832
aI32026
aI23836
aI32029
aI32032
aI32033
aI23842
aI32037
aI32039
aI34012
aI7468
aI32046
aI23857
aI46349
aI42206
aI32054
aI32056
aI32057
aI39158
aI37893
aI44938
aI10805
aI42209
aI15690
aI32078
aI32080
aI32081
aI32082
aI32084
aI32085
aI32087
aI32088
aI32091
aI32092
aI23903
aI32097
aI32099
aI23912
aI15723
aI32111
aI7537
aI44947
aI23924
aI32117
aI45659
aI15736
aI32121
aI39487
aI32124
aI32126
aI32127
aI32130
aI7555
aI7558
aI43585
aI7561
aI32138
aI12183
aI32141
aI32142
aI23951
aI32146
aI7571
aI32148
aI28569
aI32155
aI32156
aI32157
aI32158
aI32162
aI32163
aI32165
aI23976
aI7594
aI43991
aI32172
aI43859
aI32174
aI32181
aI15798
aI7609
aI43884
aI40863
aI32190
aI42229
aI32192
aI44960
aI42277
aI15812
aI8979
aI7624
aI45114
aI13893
aI32207
aI32208
aI32211
aI32212
aI17657
aI24024
aI32217
aI32220
aI15837
aI32170
aI35777
aI32229
aI8507
aI43602
aI1277
aI2643
aI28585
aI32249
aI32250
aI40874
aI24064
aI24065
aI32258
aI7684
aI32262
aI10076
aI26443
aI32267
aI32268
aI15885
aI24081
aI40628
aI32277
aI9653
aI7705
aI32285
aI32287
aI12208
aI39515
aI32292
aI15912
aI32297
aI7722
aI28594
aI7734
aI32311
aI15928
aI35423
aI24128
aI7745
aI32323
aI15940
aI24134
aI15949
aI32335
aI15953
aI32340
aI32341
aI7767
aI32344
aI24154
aI46351
aI37368
aI36266
aI32352
aI32354
aI20411
aI45606
aI32357
aI15974
aI7783
aI32360
aI39527
aI7788
aI7789
aI32367
aI32368
aI7796
aI36798
aI7798
aI32375
aI32377
aI32378
aI15995
aI15996
aI32381
aI15999
aI32384
aI32385
aI24194
aI24195
aI32391
aI32392
aI32395
aI36802
aI32399
aI32400
aI28611
aI32404
aI32405
aI16023
aI32408
aI40602
aI43631
aI32131
aI46362
aI32414
aI40901
aI40609
aI42267
aI40615
aI36814
aI35442
aI32430
aI32431
aI16049
aI38787
aI40627
aI32436
aI83230
aI40630
aI32439
aI40633
aI40634
aI40636
aI35178
aI32446
aI36542
aI32448
aI24258
aI45003
aI32453
aI42273
aI40649
aI40651
aI32460
aI17698
aI16078
aI16079
aI7891
aI32468
aI5999
aI7894
aI32471
aI24280
aI42879
aI32474
aI7901
aI40671
aI32481
aI40679
aI32489
aI32568
aI9538
aI35453
aI36683
aI7921
aI16116
aI40694
aI42281
aI7928
aI45012
aI16122
aI32508
aI32509
aI7934
aI32511
aI16128
aI40705
aI7938
aI40707
aI32517
aI7946
aI40717
aI16086
aI40721
aI16147
aI32532
aI32533
aI7959
aI32537
aI40730
aI40732
aI43092
aI7969
aI24354
aI44456
aI40740
aI35462
aI7976
aI32554
aI32555
aI32560
aI32563
aI40756
aI24542
aI16183
aI24376
aI7994
aI40764
aI16189
aI24382
aI32575
aI24384
aI24385
aI32582
aI32583
aI23453
aI40777
aI36834
aI40785
aI40787
aI44812
aI32597
aI32601
aI36454
aI40797
aI36837
aI32608
aI32610
aI40803
aI32615
aI24424
aI40809
aI40810
aI40935
aI36115
aI24429
aI24430
aI32623
aI43913
aI32628
aI32630
aI32631
aI32634
aI40828
aI32637
aI39549
aI34112
aI8067
aI32644
aI32645
aI40838
aI24456
aI32649
aI8075
aI32653
aI25092
aI8079
aI36846
aI19803
aI33003
aI36822
aI40857
aI8090
aI28655
aI29457
aI32669
aI32670
aI32671
aI43732
aI12438
aI8101
aI32678
aI24490
aI40875
aI40876
aI8110
aI37152
aI40883
aI24500
aI40885
aI32695
aI38328
aI24512
aI32705
aI32706
aI32707
aI32708
aI32709
aI40902
aI40906
aI32715
aI8140
aI40909
aI8142
aI42317
aI42318
aI35492
aI32730
aI38223
aI32732
aI32733
aI8158
aI17894
aI46099
aI32738
aI8164
aI38225
aI32744
aI32745
aI40941
aI13651
aI44463
aI40951
aI8185
aI32762
aI45055
aI43241
aI32767
atp2
Rp3
.