c__builtin__
set
p0
((lp1
I49152
aI49154
aI3
aI65540
aI58921
aI8
aI10
aI50137
aI12
aI13
aI49166
aI1637
aI65552
aI49169
aI57362
aI65555
aI57364
aI21
aI22
aI57368
aI25
aI32794
aI60079
aI49180
aI65567
aI49184
aI57381
aI42332
aI8234
aI43
aI49196
aI57390
aI57392
aI49
aI65588
aI53
aI49207
aI23220
aI49210
aI60
aI49213
aI62
aI57407
aI64
aI65
aI67
aI57412
aI8262
aI65470
aI73
aI49226
aI49230
aI24589
aI81
aI49234
aI57427
aI49237
aI65622
aI65623
aI57434
aI57435
aI51898
aI94
aI57439
aI96
aI49250
aI49251
aI24008
aI101
aI49255
aI65640
aI57449
aI24682
aI57451
aI41068
aI57454
aI49263
aI57457
aI61022
aI57288
aI118
aI65655
aI49272
aI49273
aI32890
aI32891
aI57469
aI64387
aI57365
aI57474
aI57478
aI24711
aI15822
aI32906
aI65676
aI41101
aI49294
aI58733
aI57489
aI32915
aI65685
aI65689
aI49306
aI49308
aI57370
aI57502
aI65696
aI49313
aI57507
aI57509
aI32934
aI57511
aI57512
aI45084
aI57514
aI32939
aI53471
aI49328
aI178
aI65717
aI65718
aI57528
aI57530
aI65596
aI26466
aI57534
aI57535
aI49344
aI32961
aI65730
aI57540
aI49349
aI57543
aI65736
aI8394
aI49355
aI41164
aI65741
aI49358
aI8400
aI49361
aI61118
aI57564
aI65202
aI49368
aI60111
aI49372
aI66938
aI222
aI49375
aI24800
aI47824
aI57570
aI65765
aI57574
aI57575
aI65771
aI236
aI41198
aI49392
aI4045
aI49395
aI244
aI49397
aI57590
aI41207
aI41208
aI33018
aI49405
aI24279
aI33023
aI49408
aI57601
aI60668
aI65798
aI49415
aI49417
aI5674
aI49419
aI49420
aI269
aI24846
aI49423
aI8467
aI8469
aI65814
aI33051
aI284
aI66925
aI49438
aI49442
aI49444
aI57637
aI49201
aI33064
aI57642
aI16104
aI8494
aI42376
aI66155
aI47747
aI57655
aI49464
aI65851
aI8508
aI57663
aI8513
aI322
aI1419
aI324
aI41285
aI57670
aI57672
aI58764
aI57674
aI57676
aI333
aI65871
aI57681
aI24914
aI15075
aI49493
aI57687
aI346
aI24924
aI57693
aI8542
aI49503
aI49505
aI65891
aI57700
aI65894
aI65895
aI49513
aI60505
aI49516
aI41326
aI57405
aI8560
aI49521
aI8562
aI58771
aI57406
aI65910
aI49529
aI379
aI65916
aI8575
aI384
aI49537
aI386
aI60139
aI57734
aI49217
aI65928
aI49545
aI61389
aI49547
aI49548
aI57742
aI57743
aI49552
aI49553
aI65481
aI24979
aI10379
aI57749
aI58430
aI410
aI411
aI49564
aI57757
aI49566
aI49567
aI64003
aI65955
aI57765
aI65958
aI65960
aI57769
aI65962
aI49581
aI57774
aI49583
aI49586
aI51955
aI58782
aI49225
aI440
aI49593
aI33210
aI444
aI49599
aI57793
aI49602
aI57795
aI452
aI49605
aI25030
aI64247
aI60405
aI49613
aI57810
aI57811
aI65756
aI49621
aI49622
aI57815
aI61267
aI49625
aI57818
aI8271
aI57820
aI15098
aI49631
aI49633
aI41443
aI57828
aI66021
aI33255
aI64543
aI57833
aI66027
aI66028
aI8685
aI49648
aI33269
aI66038
aI66039
aI66043
aI58665
aI66046
aI49663
aI49664
aI8705
aI49666
aI62891
aI57860
aI64257
aI57865
aI49674
aI66060
aI66061
aI57870
aI529
aI532
aI49685
aI49687
aI66671
aI49693
aI542
aI64261
aI8737
aI546
aI53339
aI49703
aI49704
aI66089
aI49707
aI64598
aI50610
aI66096
aI49713
aI563
aI41526
aI49719
aI49720
aI57913
aI66107
aI41533
aI49727
aI49728
aI57440
aI49730
aI49732
aI52939
aI49737
aI57931
aI66344
aI49743
aI8784
aI41553
aI53347
aI64270
aI49750
aI62905
aI65636
aI66138
aI57947
aI8796
aI61541
aI66144
aI609
aI8802
aI612
aI66150
aI23187
aI49769
aI103
aI41580
aI49773
aI66158
aI57970
aI57973
aI49783
aI57976
aI57977
aI49786
aI66171
aI65216
aI57450
aI66175
aI33408
aI57985
aI65489
aI61598
aI58124
aI62913
aI648
aI33417
aI57994
aI49804
aI41613
aI66190
aI41616
aI50627
aI49812
aI64281
aI49817
aI58010
aI41071
aI41628
aI66205
aI25246
aI58017
aI49830
aI8305
aI49832
aI32047
aI33451
aI58029
aI8878
aI51997
aI8881
aI66226
aI61271
aI66231
aI58046
aI49855
aI705
aI49859
aI708
aI24694
aI66373
aI49865
aI58059
aI35618
aI49870
aI49871
aI49872
aI49874
aI66259
aI48852
aI725
aI58070
aI49879
aI49883
aI49884
aI57466
aI49888
aI49890
aI739
aI49892
aI58085
aI25319
aI66281
aI746
aI41707
aI13778
aI66352
aI49904
aI58097
aI754
aI49907
aI66292
aI49914
aI49915
aI64402
aI49399
aI49920
aI49921
aI63311
aI8966
aI49927
aI60204
aI8970
aI66315
aI8972
aI58125
aI45035
aI8978
aI787
aI66585
aI58134
aI66215
aI49946
aI66333
aI25375
aI49952
aI35761
aI58146
aI58148
aI65670
aI58150
aI49960
aI5596
aI33581
aI815
aI25392
aI9009
aI49970
aI49971
aI820
aI49977
aI25403
aI41788
aI65674
aI49982
aI66368
aI66720
aI66370
aI66371
aI66372
aI49989
aI41799
aI33608
aI58188
aI58189
aI65762
aI50000
aI9041
aI58195
aI41814
aI66391
aI58131
aI67044
aI50010
aI859
aI66397
aI50014
aI41823
aI50017
aI50020
aI58213
aI56222
aI17255
aI66408
aI66409
aI61405
aI50027
aI41836
aI877
aI50033
aI50034
aI41843
aI66420
aI885
aI58230
aI58231
aI50040
aI33657
aI50042
aI66428
aI66430
aI53397
aI58241
aI50667
aI50053
aI33670
aI36613
aI58860
aI54041
aI17294
aI62957
aI58256
aI50065
aI50066
aI50067
aI50068
aI9109
aI57497
aI50073
aI50074
aI67055
aI924
aI925
aI929
aI931
aI55133
aI938
aI50093
aI58287
aI66480
aI41905
aI946
aI17331
aI948
aI50101
aI38250
aI50104
aI50105
aI17338
aI66045
aI58300
aI50109
aI958
aI9151
aI66496
aI66497
aI50115
aI50117
aI65227
aI41927
aI41930
aI64819
aI63045
aI50128
aI50129
aI58322
aI980
aI50135
aI58328
aI33753
aI50139
aI66769
aI9185
aI50146
aI9189
aI58342
aI50151
aI38396
aI58346
aI58347
aI58351
aI50160
aI65774
aI1010
aI11091
aI50164
aI66550
aI50167
aI50168
aI58362
aI66555
aI33788
aI50173
aI57591
aI58368
aI17411
aI50183
aI1033
aI17418
aI58379
aI67074
aI58382
aI50191
aI58384
aI58385
aI50197
aI42006
aI50199
aI48590
aI54788
aI50202
aI61615
aI42012
aI1015
aI50207
aI42016
aI24752
aI58402
aI50212
aI33829
aI66598
aI50217
aI50219
aI1069
aI58414
aI9263
aI50224
aI46600
aI50226
aI17459
aI58421
aI15465
aI58423
aI58424
aI42041
aI42046
aI50239
aI58432
aI39044
aI17476
aI66629
aI50247
aI50248
aI66633
aI2740
aI66638
aI66639
aI42064
aI50258
aI50259
aI58452
aI33878
aI50264
aI9305
aI50267
aI66653
aI50270
aI42080
aI58465
aI58466
aI25406
aI33893
aI9320
aI50281
aI50284
aI58671
aI66670
aI58479
aI58480
aI50291
aI62505
aI50294
aI60265
aI66681
aI50298
aI65727
aI42109
aI17534
aI58901
aI57536
aI33922
aI42115
aI58902
aI17542
aI57537
aI42120
aI66698
aI66699
aI62233
aI58509
aI50319
aI58513
aI50322
aI9365
aI50326
aI17559
aI65732
aI9370
aI17563
aI33949
aI50336
aI42146
aI58531
aI50340
aI1189
aI15217
aI66728
aI13852
aI50346
aI65735
aI33964
aI58543
aI50352
aI1201
aI50356
aI17590
aI33975
aI42168
aI50361
aI50362
aI58555
aI1213
aI50366
aI66256
aI53451
aI66760
aI66762
aI58574
aI42191
aI34000
aI1233
aI50386
aI66771
aI65742
aI58584
aI54820
aI53455
aI1244
aI66873
aI58595
aI50406
aI66791
aI34024
aI1257
aI66794
aI67111
aI60054
aI58608
aI50417
aI211
aI50422
aI50423
aI9464
aI49364
aI42234
aI63348
aI1277
aI58624
aI34050
aI50435
aI50436
aI66821
aI66824
aI66185
aI9482
aI61655
aI50444
aI50446
aI61419
aI9488
aI50449
aI42258
aI50451
aI22062
aI58646
aI42265
aI17690
aI34075
aI50460
aI17694
aI58655
aI58656
aI42273
aI50466
aI50467
aI66853
aI50470
aI220
aI58669
aI9518
aI44
aI66603
aI32778
aI50483
aI50484
aI50485
aI58678
aI42295
aI50489
aI50491
aI50494
aI58933
aI66880
aI9538
aI60299
aI61665
aI42313
aI50506
aI58935
aI50509
aI1358
aI50511
aI58705
aI66898
aI42323
aI50517
aI17751
aI65786
aI48328
aI66909
aI58719
aI64551
aI34145
aI50532
aI50533
aI9574
aI57784
aI58967
aI66923
aI50541
aI66926
aI1391
aI17776
aI9586
aI50548
aI9589
aI58743
aI17784
aI58746
aI17789
aI66942
aI58751
aI66091
aI58754
aI34180
aI34181
aI50566
aI58759
aI50568
aI49388
aI50570
aI50571
aI17804
aI66959
aI1424
aI50578
aI50579
aI49390
aI58775
aI66969
aI58778
aI50588
aI57332
aI50590
aI9797
aI58784
aI9633
aI60315
aI34212
aI66981
aI50598
aI25144
aI50603
aI60180
aI65778
aI9646
aI60317
aI50609
aI34226
aI50613
aI67001
aI67004
aI58813
aI1471
aI9664
aI58726
aI34242
aI42435
aI63022
aI58822
aI66608
aI50633
aI1482
aI50635
aI42445
aI50638
aI50639
aI50640
aI248
aI58834
aI58835
aI58840
aI1498
aI54863
aI50653
aI34270
aI42463
aI50656
aI36330
aI58850
aI9700
aI17894
aI34279
aI58857
aI56231
aI50668
aI9709
aI65789
aI50677
aI67065
aI67067
aI50684
aI1534
aI9727
aI24832
aI42498
aI42501
aI67078
aI50695
aI17928
aI67081
aI67082
aI58891
aI1548
aI1549
aI58896
aI58898
aI50707
aI50708
aI7086
aI34326
aI50711
aI34328
aI61485
aI58907
aI42524
aI58912
aI50722
aI58915
aI61203
aI58919
aI17961
aI41223
aI9772
aI66011
aI34352
aI1588
aI50741
aI8457
aI34360
aI34363
aI50748
aI58941
aI58942
aI50751
aI66078
aI58948
aI50757
aI50758
aI50762
aI62641
aI67107
aI58958
aI50769
aI58964
aI50773
aI1622
aI50775
aI58969
aI58970
aI65807
aI56520
aI50781
aI42590
aI18015
aI50784
aI9829
aI50793
aI60885
aI50795
aI50797
aI57619
aI50805
aI50812
aI50813
aI57621
aI54891
aI50823
aI50826
aI18064
aI61720
aI50837
aI33881
aI57886
aI42651
aI50845
aI42654
aI50847
aI50848
aI50850
aI9892
aI50857
aI54731
aI50862
aI61005
aI61433
aI65822
aI50871
aI50872
aI18108
aI52170
aI42687
aI9920
aI67265
aI9922
aI9924
aI50885
aI66679
aI18124
aI41250
aI50895
aI51341
aI50897
aI50899
aI66146
aI22137
aI50904
aI57636
aI66849
aI34524
aI18142
aI50911
aI50912
aI34531
aI11673
aI60369
aI63100
aI50922
aI66952
aI60370
aI63101
aI65832
aI50930
aI50934
aI50936
aI50938
aI18171
aI34556
aI65834
aI42750
aI50947
aI18180
aI50949
aI50950
aI61442
aI50952
aI50954
aI50957
aI50963
aI42772
aI50965
aI50967
aI50971
aI50973
aI18207
aI64710
aI50978
aI42787
aI34596
aI56254
aI50987
aI50990
aI50992
aI50993
aI49162
aI50997
aI60619
aI50999
aI61606
aI64837
aI10042
aI64479
aI51005
aI18238
aI18338
aI51010
aI5771
aI18244
aI43707
aI51016
aI14787
aI51024
aI312
aI51026
aI49436
aI10073
aI51042
aI51043
aI51046
aI18280
aI65258
aI66622
aI26477
aI10094
aI51056
aI10097
aI51058
aI61758
aI51062
aI26492
aI26495
aI34694
aI10119
aI56530
aI51081
aI51086
aI51087
aI61986
aI64880
aI51095
aI58440
aI49476
aI18330
aI51099
aI13978
aI34718
aI51103
aI51104
aI51105
aI51106
aI50843
aI41286
aI51110
aI64497
aI1429
aI10157
aI18355
aI18356
aI53577
aI26554
aI63135
aI61225
aI11253
aI66801
aI42946
aI56310
aI10183
aI42952
aI10187
aI18380
aI10189
aI51153
aI64505
aI63625
aI56314
aI21636
aI63519
aI51174
aI51176
aI66899
aI10220
aI8530
aI11261
aI10225
aI51186
aI339
aI26614
aI10234
aI51196
aI51197
aI56320
aI34818
aI13995
aI51205
aI26631
aI58171
aI44204
aI34828
aI941
aI51216
aI64515
aI9902
aI26647
aI43032
aI26650
aI64517
aI66628
aI64173
aI61787
aI51237
aI51239
aI51240
aI348
aI34858
aI10283
aI64719
aI26671
aI63155
aI40887
aI10297
aI351
aI51260
aI51263
aI45408
aI60628
aI60353
aI58389
aI51271
aI43080
aI14007
aI51279
aI51280
aI26706
aI61795
aI26708
aI57628
aI26713
aI34906
aI15375
aI54970
aI34910
aI51298
aI51299
aI10340
aI19473
aI63164
aI64721
aI13438
aI12747
aI34932
aI51320
aI51628
aI43132
aI65898
aI34943
aI51328
aI51901
aI43138
aI51332
aI43142
aI50881
aI51339
aI56971
aI34957
aI43151
aI43156
aI51351
aI26776
aI51356
aI51358
aI9925
aI66082
aI53616
aI8257
aI9621
aI51369
aI33138
aI51379
aI10421
aI51386
aI51387
aI27020
aI51390
aI43199
aI26819
aI35012
aI51400
aI51401
aI35022
aI42701
aI43216
aI35875
aI8569
aI61193
aI51420
aI51421
aI51424
aI60906
aI58451
aI63634
aI51433
aI56359
aI26860
aI10479
aI51440
aI35057
aI35058
aI51447
aI51450
aI61823
aI13831
aI63189
aI57728
aI54999
aI51473
aI17238
aI51476
aI35096
aI51486
aI51487
aI10529
aI51491
aI45446
aI64561
aI50908
aI66245
aI51500
aI51503
aI51504
aI51505
aI43315
aI51509
aI58181
aI57737
aI51512
aI35129
aI65930
aI51519
aI22447
aI43335
aI43337
aI51530
aI51532
aI62197
aI10575
aI10577
aI35154
aI51539
aI51540
aI61838
aI10582
aI26972
aI43357
aI51553
aI51554
aI51555
aI10596
aI51559
aI51560
aI64774
aI51566
aI7229
aI51569
aI51570
aI64174
aI51579
aI899
aI65941
aI51584
aI51585
aI51586
aI55019
aI51588
aI43398
aI67011
aI53655
aI10636
aI51597
aI10643
aI51605
aI10646
aI66411
aI51610
aI51612
aI51613
aI51617
aI51619
aI10661
aI55025
aI51624
aI61731
aI43436
aI51632
aI51633
aI51634
aI10675
aI51638
aI51640
aI74143
aI51644
aI10685
aI51648
aI10691
aI10694
aI61857
aI51656
aI51660
aI51661
aI10702
aI51665
aI51667
aI44110
aI61187
aI64591
aI18170
aI8613
aI51687
aI51689
aI10730
aI60915
aI10737
aI51698
aI51699
aI51702
aI53673
aI43512
aI61866
aI51711
aI51713
aI10756
aI60847
aI10763
aI8592
aI67331
aI54915
aI51733
aI51735
aI43544
aI51737
aI57775
aI56410
aI51742
aI35362
aI4178
aI66918
aI43558
aI10793
aI27178
aI63239
aI51756
aI51759
aI51760
aI64939
aI61190
aI61502
aI10805
aI60099
aI27638
aI54098
aI25013
aI43584
aI51778
aI51779
aI51781
aI27206
aI51783
aI59977
aI49591
aI59981
aI51791
aI27217
aI51795
aI57785
aI65283
aI51801
aI64085
aI442
aI56421
aI51808
aI66920
aI51810
aI60003
aI47138
aI60009
aI35434
aI51822
aI51823
aI51824
aI60017
aI63920
aI51831
aI447
aI60030
aI60031
aI60035
aI2692
aI10885
aI60040
aI43657
aI27274
aI51852
aI51861
aI51862
aI60055
aI51864
aI60057
aI56431
aI51869
aI60062
aI51873
aI63376
aI55067
aI44674
aI65158
aI43281
aI10920
aI60074
aI52338
aI51887
aI4552
aI31461
aI60084
aI51895
aI10936
aI31860
aI35514
aI10939
aI2748
aI43709
aI60094
aI60095
aI43714
aI35523
aI51908
aI38554
aI27337
aI51914
aI51915
aI60108
aI63266
aI51919
aI51920
aI27345
aI35540
aI65560
aI10020
aI37327
aI51935
aI51939
aI911
aI60133
aI10983
aI60137
aI2794
aI51947
aI60144
aI49194
aI44158
aI56832
aI62634
aI51962
aI63631
aI60156
aI60158
aI51967
aI64849
aI60161
aI2819
aI43780
aI60166
aI2823
aI51977
aI51978
aI2827
aI51981
aI51982
aI63277
aI57924
aI35602
aI51988
aI63278
aI60184
aI27417
aI51994
aI27421
aI43807
aI52002
aI60195
aI52005
aI53833
aI52008
aI4572
aI50287
aI52012
aI63282
aI60209
aI27442
aI60211
aI60212
aI60214
aI60553
aI60216
aI43833
aI60218
aI5824
aI60221
aI43839
aI60224
aI52034
aI64369
aI57825
aI52041
aI42807
aI27469
aI35662
aI27475
aI60558
aI60247
aI60248
aI64746
aI52059
aI52060
aI66093
aI60254
aI52063
aI43873
aI61995
aI52068
aI52369
aI52073
aI60266
aI52075
aI52078
aI42813
aI52080
aI52082
aI35699
aI60281
aI27515
aI43902
aI60291
aI52104
aI60297
aI66965
aI27799
aI27532
aI52109
aI64475
aI60304
aI52114
aI24649
aI52120
aI52122
aI52123
aI60316
aI43933
aI496
aI43938
aI27555
aI52133
aI52136
aI35754
aI35755
aI11183
aI52144
aI11185
aI35764
aI27573
aI66113
aI55113
aI11192
aI52155
aI52157
aI60350
aI49653
aI27584
aI11424
aI14155
aI11207
aI60360
aI11210
aI65841
aI60368
aI19409
aI52178
aI60371
aI52180
aI63310
aI52185
aI27610
aI60379
aI52188
aI60382
aI60384
aI52194
aI52196
aI66933
aI60392
aI27625
aI42834
aI60399
aI60401
aI32563
aI57386
aI52213
aI35830
aI11257
aI11258
aI8703
aI60412
aI52221
aI11262
aI60415
aI60416
aI52226
aI52227
aI60420
aI49665
aI52233
aI57858
aI52238
aI27663
aI60433
aI19474
aI52243
aI60436
aI36014
aI60439
aI60440
aI52249
aI46476
aI11291
aI52252
aI63322
aI44062
aI52256
aI38020
aI55131
aI52267
aI44079
aI66988
aI66390
aI21734
aI52285
aI35902
aI60480
aI44098
aI64413
aI52295
aI60488
aI27724
aI52301
aI35918
aI52303
aI52304
aI14179
aI52309
aI60502
aI35929
aI52314
aI60508
aI60510
aI64917
aI65766
aI35938
aI11365
aI60520
aI9653
aI35947
aI52332
aI11374
aI27759
aI27760
aI19570
aI27763
aI60533
aI52346
aI19581
aI52350
aI60546
aI60547
aI60548
aI15928
aI7199
aI52361
aI57879
aI6108
aI52365
aI44174
aI60559
aI44177
aI44178
aI52374
aI19607
aI52377
aI60570
aI11420
aI52384
aI27812
aI52389
aI53573
aI52392
aI11434
aI60587
aI60588
aI52398
aI61484
aI11440
aI27825
aI60594
aI52404
aI52405
aI52407
aI52409
aI60602
aI60618
aI27838
aI63693
aI19648
aI36035
aI60612
aI63350
aI57889
aI35865
aI52426
aI52427
aI52428
aI52429
aI56575
aI11473
aI52436
aI60629
aI60632
aI27867
aI60637
aI52446
aI52449
aI52450
aI60643
aI27388
aI52454
aI56303
aI52457
aI60650
aI52461
aI60654
aI52469
aI60663
aI52472
aI52473
aI52475
aI27900
aI60669
aI52478
aI60671
aI60672
aI44290
aI11523
aI52486
aI63361
aI27912
aI52489
aI52490
aI60683
aI60685
aI49212
aI52497
aI60690
aI12846
aI60696
aI11545
aI11546
aI60702
aI65926
aI63471
aI52514
aI31209
aI52516
aI52517
aI57669
aI52520
aI52523
aI11565
aI52528
aI62003
aI60726
aI55177
aI19768
aI19769
aI60731
aI63671
aI60734
aI52545
aI36162
aI27972
aI36166
aI60743
aI52552
aI11593
aI27978
aI24118
aI11596
aI52559
aI11600
aI8760
aI52451
aI52564
aI6030
aI42201
aI19800
aI60761
aI19803
aI60764
aI27999
aI28000
aI60769
aI52578
aI52579
aI60646
aI36198
aI44393
aI60778
aI64743
aI52588
aI52594
aI52595
aI52596
aI60649
aI60792
aI36218
aI21119
aI52605
aI52606
aI66112
aI60803
aI60804
aI60805
aI52615
aI52616
aI63383
aI60812
aI60817
aI36243
aI66145
aI52629
aI52631
aI52632
aI52633
aI60826
aI62583
aI57673
aI52640
aI36258
aI60835
aI19876
aI52646
aI52647
aI19880
aI51101
aI60848
aI52658
aI11699
aI44469
aI60854
aI52663
aI56564
aI60859
aI56583
aI19905
aI60869
aI11719
aI44489
aI19703
aI60876
aI52685
aI28110
aI60879
aI64760
aI60883
aI60884
aI52693
aI64727
aI52695
aI52696
aI52699
aI36320
aI57936
aI52707
aI44516
aI52710
aI28137
aI52714
aI52715
aI52718
aI44527
aI52721
aI36339
aI28149
aI52727
aI52728
aI52731
aI60924
aI60925
aI52734
aI60932
aI52743
aI54198
aI36363
aI52749
aI44559
aI19984
aI60675
aI19988
aI44565
aI52759
aI52761
aI30639
aI64981
aI61769
aI11808
aI54404
aI66139
aI60964
aI20005
aI60966
aI60967
aI11816
aI52777
aI52778
aI11819
aI60972
aI52781
aI52782
aI60975
aI52784
aI121
aI44039
aI60406
aI61770
aI48394
aI52799
aI53856
aI60994
aI52491
aI20036
aI60998
aI49761
aI44616
aI47031
aI36428
aI52813
aI44622
aI61007
aI52817
aI52823
aI52824
aI61017
aI20058
aI36444
aI20062
aI20063
aI11873
aI52834
aI4186
aI11877
aI20070
aI44647
aI61032
aI36457
aI61034
aI52843
aI65710
aI28269
aI44657
aI52850
aI56381
aI52858
aI36475
aI11901
aI64619
aI52864
aI44673
aI54680
aI11907
aI11909
aI66137
aI63179
aI52872
aI20106
aI15639
aI52876
aI621
aI11923
aI52885
aI28310
aI28313
aI52890
aI61083
aI52892
aI52506
aI61086
aI63429
aI61088
aI52897
aI61090
aI61091
aI28326
aI44715
aI61101
aI61104
aI51144
aI11954
aI64229
aI11956
aI28342
aI52919
aI64502
aI36538
aI61115
aI52925
aI52926
aI65165
aI44737
aI8313
aI28355
aI11974
aI52935
aI52937
aI52938
aI8823
aI52941
aI61135
aI52944
aI20177
aI20178
aI52947
aI61141
aI66169
aI11992
aI60708
aI27576
aI61148
aI44765
aI52958
aI61151
aI28385
aI65996
aI28389
aI44775
aI61160
aI51986
aI61164
aI12013
aI60712
aI63443
aI52981
aI52985
aI61178
aI52987
aI52990
aI61562
aI60715
aI62595
aI52997
aI36614
aI3849
aI62868
aI36619
aI36620
aI61197
aI42955
aI36623
aI61200
aI12049
aI12050
aI36627
aI3860
aI53017
aI64778
aI53019
aI12061
aI61214
aI60720
aI53026
aI53027
aI28452
aI56625
aI47068
aI53035
aI28462
aI63453
aI36657
aI3890
aI56627
aI14302
aI12086
aI61239
aI53049
aI3900
aI3902
aI63923
aI44869
aI44870
aI63457
aI61257
aI36682
aI20300
aI20301
aI36686
aI44879
aI60728
aI53075
aI53076
aI53077
aI36153
aI61273
aI36698
aI61275
aI61278
aI53089
aI44898
aI61284
aI6118
aI53094
aI61288
aI3945
aI61290
aI36715
aI61293
aI61297
aI28533
aI61302
aI61303
aI27410
aI53116
aI53117
aI3971
aI37016
aI53126
aI53127
aI36744
aI53129
aI61323
aI44940
aI53133
aI28558
aI61327
aI53140
aI36757
aI20375
aI58781
aI22511
aI17845
aI53149
aI7493
aI50325
aI66203
aI61351
aI10408
aI44970
aI53163
aI61360
aI61361
aI4018
aI61363
aI4021
aI66891
aI53176
aI44988
aI53181
aI53183
aI51690
aI20418
aI12227
aI53190
aI20424
aI55183
aI28621
aI12239
aI61392
aI53201
aI4050
aI61238
aI61396
aI60147
aI17593
aI53210
aI45021
aI66694
aI53925
aI53132
aI20449
aI6139
aI53220
aI20453
aI27985
aI20457
aI53227
aI45037
aI53230
aI34813
aI58024
aI53234
aI61427
aI53236
aI45046
aI56660
aI20474
aI4092
aI65058
aI61438
aI53247
aI53249
aI53250
aI36870
aI12297
aI53259
aI53260
aI20495
aI53267
aI12974
aI53270
aI58075
aI53273
aI12314
aI61467
aI28700
aI53279
aI11375
aI4132
aI53285
aI45096
aI4140
aI53293
aI12334
aI53295
aI65222
aI63496
aI28723
aI61495
aI53304
aI20539
aI5701
aI53310
aI53312
aI12353
aI53315
aI61510
aI53321
aI61515
aI53325
aI53329
aI45138
aI53331
aI12378
aI28763
aI53340
aI61536
aI53345
aI53346
aI61539
aI61540
aI52582
aI12390
aI12391
aI53352
aI8975
aI61547
aI66750
aI57697
aI53360
aI61556
aI45174
aI53370
aI703
aI12412
aI61565
aI61566
aI45183
aI53376
aI53377
aI61571
aI60780
aI61579
aI28812
aI61581
aI69774
aI4240
aI63512
aI53394
aI58051
aI53396
aI45205
aI12438
aI61592
aI53401
aI28830
aI8901
aI56688
aI61602
aI53411
aI12454
aI56689
aI61608
aI61610
aI53420
aI12461
aI53423
aI53428
aI53429
aI66099
aI37047
aI61624
aI11636
aI45243
aI53437
aI28864
aI53442
aI37061
aI53447
aI53448
aI37065
aI20683
aI53453
aI37070
aI12495
aI61792
aI53460
aI61653
aI53463
aI45272
aI4313
aI53466
aI66255
aI28893
aI4318
aI61663
aI12512
aI53473
aI43789
aI61669
aI53479
aI61674
aI56610
aI4335
aI53488
aI61682
aI45299
aI61686
aI45306
aI61692
aI58069
aI53506
aI53507
aI61700
aI45782
aI61702
aI61703
aI63532
aI53516
aI53518
aI4369
aI45330
aI58404
aI20758
aI61719
aI20760
aI61721
aI38959
aI45340
aI61726
aI4384
aI63536
aI53539
aI53541
aI66686
aI4394
aI12587
aI61740
aI14386
aI61743
aI12592
aI64904
aI53555
aI28982
aI64905
aI45368
aI23946
aI61023
aI37183
aI64907
aI22582
aI61767
aI53576
aI29001
aI53578
aI66274
aI45391
aI20818
aI29012
aI61781
aI61782
aI51257
aI37208
aI58084
aI12635
aI53600
aI53601
aI30779
aI61796
aI4453
aI61799
aI61801
aI23454
aI60706
aI61804
aI15762
aI12656
aI61810
aI53622
aI64916
aI53626
aI61819
aI29052
aI58090
aI32436
aI20865
aI66283
aI4484
aI56726
aI12678
aI56888
aI53640
aI61833
aI61834
aI53643
aI4493
aI53646
aI61842
aI12693
aI53654
aI12695
aI37275
aI61853
aI34885
aI37280
aI4513
aI53667
aI61861
aI61862
aI66289
aI61864
aI37289
aI9425
aI12718
aI755
aI46251
aI37303
aI66437
aI45497
aI61885
aI61886
aI20927
aI53700
aI19834
aI61894
aI12743
aI53704
aI12746
aI62199
aI60834
aI12750
aI29135
aI45525
aI61912
aI44452
aI53722
aI6223
aI60437
aI45533
aI37345
aI62074
aI45543
aI53736
aI61929
aI29163
aI20972
aI54013
aI52648
aI63571
aI61941
aI53751
aI57357
aI12796
aI29181
aI37376
aI53762
aI53763
aI53764
aI61960
aI61961
aI61965
aI45582
aI53778
aI61972
aI53781
aI65349
aI61975
aI52655
aI61980
aI62213
aI61984
aI21026
aI61988
aI37413
aI45606
aI53799
aI61992
aI51165
aI58119
aI61258
aI37620
aI63581
aI53808
aI15795
aI66313
aI37432
aI37434
aI37436
aI53821
aI11701
aI12864
aI37441
aI53826
aI23990
aI64295
aI53831
aI780
aI53836
aI62032
aI45652
aI53846
aI53847
aI43108
aI54031
aI53853
aI62046
aI12896
aI45666
aI64806
aI29287
aI56350
aI60169
aI54034
aI57912
aI28946
aI12915
aI29303
aI53881
aI37498
aI53885
aI62078
aI53887
aI62083
aI53892
aI49942
aI53896
aI22636
aI62090
aI62091
aI53903
aI7796
aI7619
aI65117
aI45719
aI21144
aI12956
aI53917
aI62113
aI977
aI53923
aI29348
aI37541
aI12966
aI53930
aI60871
aI53932
aI21166
aI64263
aI7624
aI53942
aI53944
aI66335
aI53948
aI64970
aI53950
aI63605
aI53952
aI53954
aI53957
aI20073
aI53963
aI45774
aI60877
aI30840
aI54051
aI53973
aI29398
aI63609
aI6980
aI13017
aI53979
aI62172
aI13022
aI53983
aI62176
aI13027
aI37604
aI53989
aI21222
aI62183
aI53993
aI62187
aI64265
aI45805
aI53998
aI53999
aI29425
aI24019
aI54004
aI45813
aI54006
aI37623
aI58537
aI29437
aI54015
aI45824
aI62210
aI62212
aI54021
aI54027
aI45839
aI21264
aI29457
aI21266
aI13078
aI29464
aI21273
aI66351
aI21277
aI21278
aI37663
aI62240
aI45857
aI62242
aI36315
aI54058
aI62251
aI54060
aI54061
aI21295
aI65932
aI58163
aI62261
aI62262
aI37687
aI62265
aI45882
aI62267
aI54078
aI54082
aI54083
aI66723
aI60897
aI54088
aI56903
aI13135
aI32080
aI45906
aI37716
aI54101
aI17209
aI37723
aI21340
aI54109
aI54113
aI54115
aI60902
aI63178
aI54449
aI65702
aI54125
aI62319
aI60996
aI62322
aI66179
aI58174
aI54134
aI21370
aI54140
aI37757
aI45953
aI37762
aI62340
aI54150
aI62344
aI62088
aI37771
aI62351
aI54160
aI51352
aI62354
aI54164
aI54167
aI37784
aI54169
aI45983
aI64271
aI21409
aI65635
aI21414
aI62376
aI34972
aI58183
aI62380
aI54189
aI37806
aI45999
aI13232
aI54194
aI52723
aI62635
aI46006
aI64737
aI13240
aI54202
aI54204
aI46018
aI62404
aI62405
aI26785
aI54216
aI54217
aI46029
aI62415
aI54224
aI54225
aI54226
aI37844
aI66382
aI63652
aI54234
aI54235
aI54238
aI54239
aI17232
aI65594
aI62438
aI66385
aI54248
aI54249
aI51753
aI13138
aI13294
aI62447
aI62449
aI62451
aI56554
aI54262
aI21497
aI37882
aI57978
aI54269
aI13312
aI62465
aI62467
aI37892
aI37893
aI46088
aI46090
aI63729
aI54284
aI21517
aI13326
aI62482
aI54293
aI65639
aI56910
aI21536
aI62497
aI62503
aI62504
aI37724
aI62507
aI21552
aI46131
aI62521
aI58207
aI13372
aI62525
aI37950
aI62530
aI52747
aI63670
aI54342
aI54345
aI46155
aI62541
aI32168
aI54354
aI66732
aI21591
aI46169
aI54362
aI46172
aI62558
aI21599
aI54370
aI43195
aI62564
aI54374
aI46184
aI62569
aI62572
aI54381
aI54385
aI60947
aI54923
aI35006
aI54391
aI65131
aI62585
aI54394
aI10431
aI62589
aI54398
aI28895
aI13444
aI62598
aI48663
aI13452
aI54415
aI62608
aI62610
aI54420
aI62617
aI54427
aI62626
aI54435
aI62628
aI38053
aI54438
aI41841
aI38057
aI46250
aI54443
aI38062
aI46257
aI54450
aI58227
aI67008
aI58169
aI54458
aI62651
aI54460
aI54461
aI63735
aI54465
aI54468
aI62326
aI62662
aI34410
aI54474
aI46283
aI32911
aI62669
aI62671
aI46288
aI46289
aI54485
aI54486
aI66425
aI62680
aI58553
aI62682
aI46300
aI57462
aI13535
aI65230
aI26832
aI65021
aI54502
aI46313
aI58356
aI13547
aI54508
aI13552
aI46322
aI54516
aI21750
aI38135
aI54520
aI38138
aI17279
aI64656
aI54525
aI54529
aI62722
aI13572
aI54533
aI54535
aI58009
aI62729
aI63192
aI13581
aI8090
aI7725
aI62736
aI58243
aI46356
aI60974
aI46359
aI46362
aI30938
aI54559
aI54562
aI62755
aI54567
aI54568
aI13614
aI46385
aI62773
aI21815
aI54584
aI54590
aI56885
aI54593
aI54595
aI21829
aI62794
aI38220
aI21841
aI13651
aI58254
aI62806
aI66882
aI54618
aI54619
aI38237
aI62814
aI62815
aI66813
aI62818
aI63195
aI13671
aI62824
aI62825
aI54634
aI39465
aI21869
aI60989
aI54641
aI54643
aI56376
aI65087
aI21885
aI62846
aI62850
aI54659
aI65089
aI21900
aI7746
aI62865
aI62867
aI54676
aI62869
aI38296
aI54681
aI46490
aI21915
aI54684
aI922
aI62878
aI13729
aI54690
aI46500
aI62885
aI46502
aI54695
aI20039
aI54700
aI62893
aI66461
aI62896
aI21938
aI62652
aI54709
aI54710
aI62903
aI54712
aI46521
aI62908
aI62911
aI54721
aI38338
aI52811
aI54724
aI54725
aI62918
aI54177
aI54729
aI46538
aI39159
aI53011
aI54733
aI56909
aI5584
aI38353
aI54738
aI46547
aI21972
aI54741
aI21974
aI54744
aI54748
aI63738
aI62942
aI54751
aI13793
aI54754
aI21987
aI62948
aI54757
aI13798
aI54760
aI13802
aI55016
aI5614
aI46575
aI22000
aI54771
aI54185
aI54777
aI54780
aI46589
aI67019
aI62976
aI22020
aI27861
aI54791
aI5640
aI54795
aI54797
aI33709
aI54801
aI54803
aI5653
aI54807
aI63001
aI13231
aI46620
aI44634
aI22046
aI5665
aI5668
aI38442
aI63020
aI46637
aI38446
aI56925
aI63541
aI63025
aI22066
aI63027
aI54836
aI46645
aI63753
aI63032
aI22073
aI60747
aI54843
aI54844
aI58293
aI22080
aI13893
aI52833
aI46665
aI46667
aI13900
aI5711
aI62392
aI54866
aI63063
aI46682
aI22013
aI64840
aI46689
aI63075
aI50581
aI54885
aI54886
aI5735
aI56935
aI46701
aI63087
aI54896
aI54897
aI63980
aI63093
aI38519
aI10516
aI64478
aI46715
aI38524
aI5757
aI38526
aI63103
aI54912
aI54913
aI5762
aI11883
aI46726
aI63111
aI46728
aI63113
aI63114
aI22155
aI61037
aI54928
aI58307
aI22164
aI58295
aI63126
aI38551
aI46746
aI63133
aI41925
aI13985
aI14923
aI22179
aI54953
aI54955
aI60323
aI22189
aI54959
aI46769
aI14003
aI63774
aI54967
aI22200
aI46777
aI38586
aI63163
aI46780
aI13560
aI54974
aI54975
aI54976
aI14017
aI67068
aI54979
aI22213
aI2649
aI54984
aI61281
aI46795
aI5836
aI22223
aI26927
aI5842
aI5845
aI46806
aI48761
aI55000
aI46811
aI65146
aI55006
aI63199
aI46816
aI52859
aI46822
aI46823
aI46824
aI63209
aI46827
aI55020
aI22253
aI60753
aI55023
aI46833
aI38642
aI63226
aI63231
aI63232
aI61056
aI55044
aI63238
aI11905
aI55049
aI66519
aI46861
aI55055
aI56963
aI55061
aI46871
aI5912
aI62997
aI6198
aI66483
aI55070
aI55071
aI65977
aI46882
aI55075
aI55077
aI5926
aI5929
aI46890
aI65159
aI6450
aI55086
aI55087
aI55088
aI63281
aI55090
aI47411
aI14133
aI55095
aI63290
aI55099
aI14140
aI14141
aI55102
aI55104
aI8259
aI5955
aI55108
aI9200
aI46918
aI30537
aI46922
aI5963
aI14156
aI32114
aI55118
aI46927
aI55120
aI30545
aI38738
aI22355
aI38741
aI58847
aI5975
aI46936
aI46938
aI46939
aI46941
aI63052
aI47419
aI46949
aI55142
aI55143
aI46953
aI22378
aI55147
aI14188
aI56978
aI55150
aI63346
aI55155
aI46964
aI14198
aI63352
aI63354
aI63355
aI55167
aI61198
aI46977
aI55173
aI55174
aI63367
aI46984
aI22409
aI6026
aI55179
aI14220
aI30606
aI54253
aI21426
aI63380
aI46997
aI63382
aI61081
aI47000
aI47001
aI63386
aI30686
aI47007
aI47008
aI6049
aI38819
aI47012
aI22440
aI47018
aI50162
aI40605
aI6064
aI63411
aI6069
aI6071
aI47033
aI22458
aI31050
aI63422
aI67034
aI14273
aI63427
aI14277
aI47046
aI47050
aI47051
aI65726
aI63438
aI63439
aI47059
aI63444
aI47061
aI63446
aI47063
aI7844
aI47067
aI38876
aI13306
aI38878
aI30688
aI47073
aI47075
aI63461
aI14310
aI22503
aI63465
aI65191
aI47084
aI51538
aI47087
aI63475
aI47095
aI22520
aI47099
aI30716
aI6144
aI66560
aI61035
aI14341
aI47111
aI30728
aI65279
aI63499
aI61220
aI63504
aI38930
aI30739
aI30744
aI63514
aI63515
aI63517
aI66654
aI47135
aI47137
aI14370
aI63523
aI47140
aI47141
aI7298
aI47144
aI14378
aI47148
aI52914
aI17664
aI10589
aI47152
aI47154
aI47155
aI30772
aI47157
aI47158
aI63543
aI14393
aI47163
aI37898
aI63550
aI65205
aI47168
aI6209
aI65206
aI6215
aI47178
aI65402
aI47182
aI54285
aI47184
aI47187
aI67039
aI57017
aI47192
aI11880
aI6235
aI52922
aI63845
aI47202
aI63588
aI47207
aI63595
aI47212
aI6253
aI61117
aI67091
aI6259
aI30837
aI47223
aI22648
aI47225
aI22655
aI47232
aI57024
aI42169
aI30852
aI39045
aI14471
aI47240
aI14700
aI47242
aI47243
aI60494
aI49310
aI22893
aI39058
aI57027
aI63639
aI54766
aI63643
aI58394
aI63646
aI47266
aI22692
aI20166
aI63655
aI39080
aI14506
aI6315
aI14508
aI47277
aI47280
aI30897
aI47285
aI14518
aI30903
aI52644
aI63676
aI47296
aI66592
aI47299
aI63685
aI22728
aI64091
aI22733
aI65229
aI14544
aI54768
aI63702
aI63703
aI47320
aI47321
aI47322
aI65231
aI30940
aI63709
aI47326
aI47327
aI14560
aI63716
aI63719
aI63868
aI14570
aI47340
aI63869
aI22768
aI47345
aI63730
aI30963
aI30965
aI6390
aI47351
aI47353
aI47354
aI63740
aI63764
aI47358
aI31685
aI47362
aI63747
aI65238
aI47366
aI63752
aI44404
aI30987
aI53406
aI63759
aI27219
aI62408
aI30997
aI47382
aI24281
aI47384
aI63770
aI39195
aI47388
aI61146
aI61590
aI47391
aI63776
aI63777
aI41677
aI63779
aI22821
aI53134
aI58417
aI6444
aI31021
aI47407
aI31024
aI63793
aI47410
aI50227
aI31031
aI60000
aI39227
aI31037
aI47422
aI47424
aI63811
aI6468
aI47429
aI6473
aI47434
aI63820
aI47439
aI31056
aI47442
aI31060
aI47445
aI47448
aI39257
aI14682
aI63835
aI63836
aI39261
aI6495
aI14688
aI62523
aI47461
aI39270
aI14695
aI47465
aI14698
aI47468
aI6509
aI47470
aI64474
aI47473
aI47474
aI47475
aI39284
aI54334
aI63862
aI47480
aI42047
aI14716
aI47485
aI47486
aI61163
aI47492
aI63878
aI31954
aI47505
aI62685
aI54339
aI14740
aI47509
aI47513
aI14747
aI66111
aI63904
aI63905
aI14754
aI47523
aI14757
aI63656
aI17479
aI31149
aI47534
aI47535
aI47536
aI17480
aI47539
aI63547
aI22966
aI47546
aI28405
aI47552
aI39361
aI62539
aI63943
aI65271
aI66364
aI19627
aI47571
aI62279
aI63958
aI47576
aI61365
aI63937
aI7930
aI63967
aI66640
aI47588
aI65184
aI31208
aI47593
aI63978
aI47595
aI6222
aI63823
aI47599
aI47602
aI47603
aI31220
aI32510
aI63991
aI23776
aI14843
aI63996
aI53414
aI64000
aI17423
aI31236
aI58454
aI64007
aI47624
aI47625
aI39434
aI47627
aI47629
aI39438
aI63917
aI58456
aI47634
aI57091
aI58052
aI39342
aI31255
aI47647
aI47649
aI64036
aI14885
aI65239
aI14887
aI6696
aI64041
aI60235
aI64054
aI47660
aI64046
aI64047
aI64050
aI47667
aI64053
aI39478
aI6711
aI47672
aI63924
aI64060
aI7946
aI47678
aI62418
aI58464
aI39490
aI47684
aI39494
aI64071
aI39497
aI64074
aI47691
aI6737
aI66659
aI64084
aI3854
aI39510
aI31319
aI47704
aI47705
aI64090
aI12047
aI6748
aI47711
aI63783
aI65147
aI47723
aI47724
aI61202
aI47727
aI62568
aI3859
aI39541
aI39542
aI65966
aI61204
aI6787
aI57783
aI47750
aI6791
aI47752
aI42092
aI47754
aI6795
aI47756
aI39567
aI47761
aI47763
aI18376
aI47767
aI47768
aI31387
aI39581
aI6814
aI47778
aI61211
aI51654
aI64167
aI57111
aI63545
aI31403
aI47789
aI63385
aI64178
aI47796
aI47797
aI47799
aI47800
aI65311
aI64188
aI47806
aI47809
aI47810
aI47811
aI31433
aI63425
aI47819
aI7134
aI64205
aI6862
aI47823
aI23248
aI6865
aI63658
aI61059
aI15062
aI23257
aI23260
aI66682
aI54395
aI47845
aI64230
aI47848
aI67061
aI63954
aI50301
aI64241
aI22995
aI31476
aI62949
aI64246
aI47863
aI47866
aI66687
aI51513
aI31487
aI65295
aI23297
aI31491
aI47877
aI64262
aI47879
aI64264
aI60788
aI47882
aI47883
aI6924
aI57242
aI31503
aI63960
aI31055
aI47891
aI6936
aI46212
aI64284
aI47902
aI47906
aI47909
aI53041
aI47912
aI47913
aI64301
aI64302
aI47919
aI47920
aI34875
aI47922
aI24371
aI47924
aI47928
aI47930
aI47934
aI60517
aI64320
aI64321
aI6978
aI62603
aI47940
aI15173
aI64327
aI66700
aI57143
aI47954
aI47960
aI47962
aI31579
aI64348
aI31581
aI47966
aI64354
aI47971
aI47973
aI23399
aI44697
aI7018
aI10727
aI5962
aI66706
aI57149
aI47985
aI39401
aI56184
aI58064
aI23421
aI23423
aI56973
aI56193
aI31211
aI64392
aI41564
aI37333
aI50327
aI64396
aI64400
aI48017
aI56210
aI56212
aI58691
aI15257
aI31253
aI56221
aI48030
aI61253
aI31649
aI48034
aI31651
aI48037
aI64422
aI51697
aI64425
aI56236
aI14834
aI56238
aI48048
aI56242
aI64435
aI66551
aI48054
aI57161
aI7096
aI48057
aI64442
aI48060
aI56253
aI48062
aI48064
aI64942
aI35318
aI62431
aI56263
aI7112
aI63005
aI12109
aI48080
aI10744
aI37881
aI48086
aI56279
aI56282
aI56283
aI48093
aI48094
aI17573
aI56288
aI48097
aI23035
aI48102
aI48103
aI48104
aI24434
aI65160
aI56299
aI56301
aI58645
aI48111
aI56304
aI56305
aI64498
aI60523
aI48116
aI56309
aI7158
aI48119
aI57172
aI48122
aI9386
aI63524
aI15360
aI64888
aI48131
aI64516
aI7173
aI64518
aI56329
aI56330
aI56331
aI48143
aI56338
aI48147
aI54446
aI56345
aI15387
aI64540
aI31773
aI7198
aI48159
aI56358
aI15399
aI48169
aI64556
aI48173
aI39248
aI43067
aI23602
aI29428
aI7222
aI7223
aI48184
aI56377
aI31803
aI48188
aI48189
aI56382
aI56383
aI63799
aI61344
aI56388
aI64581
aI56390
aI48199
aI48200
aI56394
aI56395
aI14755
aI60526
aI1605
aI14861
aI67073
aI31246
aI15446
aI9401
aI23641
aI48218
aI28517
aI56416
aI7269
aI64614
aI46615
aI56425
aI48235
aI64621
aI31855
aI56432
aI8040
aI64626
aI56435
aI48244
aI15477
aI56439
aI31864
aI56442
aI56444
aI31869
aI48254
aI43541
aI56448
aI64641
aI48258
aI56453
aI48263
aI48266
aI56459
aI15501
aI56405
aI56464
aI64657
aI7314
aI48277
aI7319
aI48282
aI64667
aI7324
aI7328
aI64673
aI64075
aI23717
aI64678
aI48295
aI48297
aI65712
aI31917
aI56497
aI56499
aI64693
aI31069
aI48311
aI48314
aI6687
aI7357
aI61301
aI31940
aI56517
aI48326
aI23752
aI48329
aI63258
aI56524
aI56526
aI22068
aI56528
aI48337
aI48338
aI48343
aI7386
aI64731
aI56540
aI44922
aI7390
aI52893
aI50384
aI57211
aI64350
aI50385
aI48360
aI64745
aI48362
aI48364
aI3965
aI48369
aI56562
aI48372
aI56566
aI56567
aI56568
aI56569
aI64762
aI65407
aI56572
aI48383
aI48384
aI65408
aI56578
aI64771
aI7428
aI56581
aI56582
aI48391
aI56584
aI66449
aI32010
aI7437
aI64783
aI66776
aI53123
aI56596
aI48405
aI58585
aI64794
aI62789
aI48413
aI48414
aI64800
aI56609
aI23842
aI48422
aI9523
aI15659
aI7468
aI48431
aI17944
aI53128
aI17434
aI39475
aI32052
aI56629
aI56631
aI56633
aI54495
aI23868
aI48445
aI64834
aI56645
aI64838
aI56647
aI48456
aI7497
aI56650
aI32075
aI64845
aI22145
aI65421
aI61320
aI64056
aI48468
aI48469
aI8979
aI56665
aI48474
aI57231
aI48478
aI23903
aI58598
aI56678
aI65425
aI56682
aI15723
aI64877
aI48496
aI7537
aI56690
aI49043
aI54505
aI62991
aI56698
aI48508
aI56990
aI56703
aI56704
aI7558
aI56712
aI7561
aI53717
aI12183
aI64908
aI64066
aI8708
aI48527
aI48528
aI56721
aI48530
aI7571
aI48532
aI56725
aI7574
aI66827
aI48540
aI48541
aI64929
aI56739
aI48548
aI48551
aI23976
aI61340
aI7594
aI48555
aI64940
aI56446
aI44004
aI61808
aI48563
aI48566
aI64073
aI40863
aI32189
aI56766
aI56768
aI44960
aI48579
aI15812
aI56773
aI48584
aI56778
aI56782
aI56783
aI48592
aI48593
aI56786
aI54265
aI56788
aI56789
aI64983
aI48601
aI64987
aI64990
aI57253
aI64993
aI64994
aI32229
aI48614
aI48616
aI56809
aI48618
aI24043
aI66773
aI48621
aI65007
aI48625
aI48627
aI48629
aI24056
aI48636
aI61354
aI48639
aI24064
aI48641
aI64086
aI56839
aI65033
aI56842
aI56843
aI61632
aI65038
aI48655
aI56849
aI32274
aI48661
aI39513
aI54532
aI48666
aI57717
aI56865
aI44993
aI48675
aI48677
aI32295
aI65065
aI48682
aI6107
aI44978
aI65073
aI48690
aI65076
aI32309
aI7734
aI66825
aI48696
aI66826
aI56894
aI48703
aI65088
aI48705
aI56898
aI65091
aI15940
aI48711
aI48714
aI32695
aI48716
aI15949
aI48718
aI65103
aI48720
aI44984
aI7763
aI65109
aI33058
aI48730
aI32347
aI48732
aI24157
aI48735
aI56931
aI48743
aI65128
aI48745
aI56938
aI56939
aI56942
aI58418
aI56944
aI48754
aI66835
aI56948
aI57271
aI56950
aI32377
aI58545
aI15995
aI15996
aI13589
aI24194
aI32387
aI48772
aI56966
aI16007
aI48776
aI61909
aI48779
aI40589
aI40592
aI48786
aI61379
aI32404
aI56981
aI16023
aI56985
aI56987
aI65180
aI50458
aI48798
aI56991
aI48800
aI65186
aI48804
aI48805
aI65190
aI48807
aI57000
aI57001
aI65194
aI57287
aI31040
aI7856
aI16049
aI48818
aI65203
aI48820
aI58654
aI48822
aI48823
aI40633
aI62751
aI65214
aI32448
aI66848
aI48835
aI48837
aI57030
aI58657
aI66993
aI65225
aI62901
aI48844
aI57037
aI16078
aI48847
aI23449
aI16084
aI57046
aI48855
aI40665
aI57051
aI57053
aI57054
aI65247
aI7904
aI57058
aI1318
aI57063
aI48872
aI32489
aI16106
aI37089
aI48876
aI65261
aI57070
aI67021
aI65267
aI16116
aI48887
aI16122
aI65276
aI7934
aI60836
aI57089
aI48898
aI48899
aI67096
aI65287
aI57098
aI63447
aI48909
aI65294
aI57103
aI57106
aI64131
aI57109
aI65302
aI48919
aI60036
aI61641
aI34095
aI50457
aI57118
aI60037
aI48929
aI32547
aI57124
aI57126
aI24816
aI16175
aI32560
aI48945
aI1331
aI65332
aI8158
aI16183
aI66557
aI32569
aI7994
aI40763
aI65340
aI48957
aI32575
aI40768
aI8001
aI57155
aI40773
aI45025
aI48969
aI57228
aI54583
aI65357
aI65359
aI48977
aI48978
aI58652
aI32596
aI57175
aI8164
aI65509
aI48993
aI48994
aI57188
aI48998
aI49000
aI61415
aI49004
aI57197
aI57202
aI39571
aI62782
aI49014
aI23352
aI57210
aI49019
aI57212
aI57213
aI65406
aI40831
aI57216
aI57217
aI62684
aI57219
aI65412
aI49029
aI49031
aI65416
aI49033
aI32652
aI57229
aI8079
aI49040
aI64152
aI49042
aI57235
aI8084
aI65430
aI65980
aI57241
aI40858
aI61423
aI57244
aI9547
aI32671
aI57251
aI57252
aI8101
aI65446
aI65609
aI8104
aI49065
aI57258
aI49067
aI49068
aI66556
aI49074
aI57267
aI49077
aI50505
aI24505
aI64647
aI49086
aI24512
aI32706
aI32707
aI57284
aI40901
aI55100
aI49096
aI62796
aI60283
aI49100
aI65485
aI61647
aI49105
aI65491
aI57300
aI28665
aI65499
aI49117
aI24542
aI49120
aI65505
aI57314
aI57315
aI57316
aI49125
aI9553
aI43917
aI65514
aI49131
aI57324
aI65517
aI58975
aI65519
aI65520
aI60072
aI49138
aI50515
aI53192
aI63285
aI65526
aI65528
aI49145
aI57338
aI65535
aI49148
aI65533
aI65534
aI24823
atp2
Rp3
.