c__builtin__
set
p0
((lp1
I4096
aI4097
aI3
aI5
aI6
aI8
aI4105
aI10
aI12
aI13
aI14
aI15
aI16
aI2660
aI18
aI20
aI21
aI22
aI24
aI25
aI26
aI28
aI4442
aI31
aI4128
aI4130
aI35
aI37
aI39
aI40
aI41
aI43
aI4140
aI45
aI46
aI48
aI49
aI4147
aI52
aI53
aI58
aI59
aI60
aI61
aI62
aI64
aI65
aI66
aI73
aI75
aI77
aI79
aI80
aI81
aI4180
aI4181
aI86
aI87
aI4185
aI90
aI4187
aI92
aI94
aI96
aI98
aI99
aI4196
aI4197
aI104
aI108
aI109
aI111
aI113
aI4210
aI116
aI117
aI118
aI4216
aI121
aI4219
aI4222
aI127
aI2752
aI130
aI4227
aI4231
aI136
aI138
aI139
aI140
aI141
aI4240
aI4120
aI149
aI4246
aI153
aI154
aI156
aI4256
aI163
aI4438
aI165
aI166
aI167
aI168
aI169
aI4268
aI4269
aI4275
aI182
aI184
aI185
aI4284
aI4285
aI191
aI200
aI201
aI4298
aI204
aI206
aI2765
aI4304
aI4307
aI212
aI213
aI218
aI4315
aI4317
aI4318
aI4133
aI224
aI4324
aI4328
aI236
aI4334
aI242
aI243
aI4340
aI247
aI248
aI249
aI4346
aI251
aI255
aI257
aI258
aI259
aI2774
aI263
aI269
aI270
aI272
aI4142
aI280
aI284
aI4384
aI4145
aI296
aI4395
aI4397
aI302
aI4401
aI307
aI4405
aI312
aI313
aI314
aI315
aI316
aI319
aI320
aI2784
aI322
aI323
aI324
aI325
aI327
aI333
aI335
aI339
aI342
aI344
aI346
aI347
aI348
aI351
aI353
aI4452
aI358
aI4457
aI4462
aI4466
aI4468
aI4158
aI377
aI379
aI382
aI384
aI386
aI2662
aI397
aI399
aI404
aI407
aI411
aI413
aI33186
aI422
aI434
aI439
aI440
aI441
aI442
aI447
aI4171
aI453
aI454
aI455
aI456
aI458
aI2807
aI460
aI463
aI464
aI466
aI469
aI476
aI477
aI481
aI486
aI4108
aI495
aI500
aI501
aI504
aI505
aI514
aI519
aI522
aI527
aI528
aI529
aI532
aI535
aI536
aI537
aI539
aI4186
aI546
aI550
aI552
aI4188
aI559
aI562
aI565
aI570
aI571
aI575
aI581
aI582
aI586
aI587
aI588
aI590
aI591
aI592
aI2641
aI594
aI2643
aI2644
aI600
aI601
aI2650
aI2651
aI604
aI607
aI2656
aI609
aI610
aI611
aI612
aI2661
aI614
aI616
aI2665
aI618
aI620
aI621
aI622
aI623
aI625
aI626
aI2679
aI632
aI634
aI637
aI2688
aI2689
aI643
aI2692
aI649
aI2698
aI2700
aI2706
aI2709
aI662
aI663
aI665
aI666
aI2715
aI2716
aI669
aI672
aI675
aI676
aI2727
aI680
aI682
aI686
aI2736
aI690
aI691
aI692
aI2743
aI2745
aI2746
aI2747
aI2750
aI703
aI704
aI705
aI706
aI2755
aI2757
aI710
aI713
aI715
aI2764
aI717
aI2768
aI721
aI2770
aI724
aI725
aI726
aI2775
aI728
aI729
aI2779
aI733
aI736
aI2786
aI739
aI740
aI741
aI2791
aI2794
aI748
aI2799
aI753
aI754
aI756
aI2806
aI759
aI760
aI761
aI762
aI764
aI767
aI769
aI770
aI772
aI773
aI2822
aI776
aI2826
aI2827
aI782
aI785
aI787
aI788
aI790
aI792
aI793
aI794
aI795
aI802
aI815
aI816
aI817
aI819
aI821
aI823
aI827
aI828
aI4234
aI833
aI838
aI839
aI840
aI844
aI847
aI849
aI864
aI866
aI867
aI870
aI872
aI875
aI9068
aI879
aI882
aI884
aI886
aI893
aI894
aI897
aI898
aI899
aI900
aI903
aI906
aI907
aI1517
aI914
aI918
aI919
aI921
aI922
aI924
aI926
aI927
aI929
aI931
aI934
aI938
aI939
aI941
aI944
aI945
aI946
aI948
aI950
aI952
aI4207
aI958
aI960
aI961
aI965
aI966
aI967
aI970
aI978
aI979
aI980
aI982
aI989
aI991
aI993
aI995
aI996
aI3891
aI1001
aI1009
aI1010
aI1011
aI1014
aI1024
aI1536
aI1030
aI1031
aI1033
aI23563
aI1040
aI1043
aI1047
aI1048
aI1051
aI1058
aI1069
aI1075
aI1076
aI1078
aI1080
aI1081
aI1095
aI1097
aI17484
aI1102
aI1104
aI1105
aI1106
aI1107
aI1108
aI1116
aI4249
aI1119
aI1120
aI1125
aI7274
aI1140
aI1147
aI1155
aI4403
aI1165
aI1171
aI1172
aI1183
aI1184
aI1186
aI6683
aI1190
aI1191
aI1192
aI1194
aI1200
aI1203
aI1205
aI1207
aI1209
aI1217
aI1219
aI1220
aI1222
aI1226
aI1228
aI1229
aI1234
aI1236
aI4302
aI1241
aI1242
aI1243
aI1244
aI1246
aI1248
aI1252
aI1253
aI1254
aI1256
aI1259
aI1260
aI1261
aI1265
aI1277
aI1278
aI1279
aI1281
aI1282
aI1284
aI1286
aI1287
aI1291
aI1296
aI1301
aI1304
aI1306
aI4314
aI1312
aI1316
aI1320
aI1323
aI1324
aI1327
aI1331
aI1333
aI1335
aI1336
aI4409
aI1344
aI1347
aI1352
aI1353
aI2773
aI4237
aI1365
aI1367
aI1370
aI1373
aI1379
aI1380
aI15723
aI1388
aI1392
aI1393
aI1401
aI1412
aI1413
aI1416
aI1417
aI1418
aI1419
aI1424
aI1425
aI1434
aI1435
aI1438
aI1443
aI1446
aI1448
aI1453
aI1454
aI1457
aI1462
aI1464
aI1465
aI1467
aI1476
aI4209
aI1481
aI1482
aI1483
aI1487
aI1502
aI1508
aI1511
aI1512
aI1513
aI1514
aI2642
aI1520
aI4008
aI1523
aI5620
aI1526
aI1529
aI1534
aI24064
aI1537
aI1539
aI1546
aI1547
aI1548
aI1549
aI1550
aI1552
aI2648
aI4355
aI1556
aI1557
aI1560
aI1565
aI1567
aI1568
aI1570
aI1571
aI1572
aI1579
aI1580
aI1585
aI1596
aI1607
aI1608
aI1609
aI1611
aI1612
aI1614
aI1618
aI1622
aI1624
aI1625
aI1628
aI1629
aI1631
aI1632
aI1637
aI1638
aI1639
aI4376
aI4148
aI4354
aI4287
aI3838
aI3839
aI3841
aI3846
aI3847
aI3855
aI3857
aI3859
aI3865
aI3869
aI3871
aI3877
aI3878
aI3879
aI3881
aI3883
aI3885
aI3890
aI2789
aI3903
aI3908
aI3911
aI3914
aI3916
aI3921
aI3923
aI3926
aI3927
aI3931
aI3935
aI3939
aI3940
aI3943
aI4412
aI3947
aI3948
aI3949
aI3953
aI3959
aI4416
aI3971
aI3972
aI3983
aI3986
aI3990
aI3993
aI3996
aI3999
aI8104
aI4423
aI4012
aI4015
aI4019
aI4021
aI4028
aI4031
aI4036
aI4041
aI4043
aI4046
aI4049
aI4050
aI4051
aI4214
aI4055
aI4059
aI4063
aI4076
aI4078
aI4079
aI4080
aI4089
aI4091
atp2
Rp3
.