c__builtin__
set
p0
((lp1
I3
aI5
aI6
aI8
aI10
aI13
aI8208
aI21
aI22
aI8215
aI8216
aI25
aI26
aI28
aI8223
aI8225
aI43
aI8236
aI8238
aI8239
aI49
aI8242
aI52
aI53
aI8249
aI8250
aI59
aI8252
aI62
aI64
aI65
aI66
aI67
aI69
aI8264
aI73
aI75
aI77
aI8270
aI79
aI81
aI8274
aI86
aI8279
aI90
aI8284
aI94
aI96
aI8289
aI101
aI8295
aI109
aI117
aI118
aI8318
aI127
aI8324
aI8331
aI8336
aI8217
aI152
aI8346
aI8357
aI166
aI167
aI8360
aI8220
aI8368
aI8369
aI8371
aI8374
aI184
aI185
aI8381
aI8384
aI8394
aI8395
aI8397
aI8400
aI8402
aI8405
aI8408
aI8410
aI8411
aI8412
aI8413
aI222
aI224
aI8421
aI236
aI242
aI8436
aI245
aI248
aI8442
aI8443
aI8448
aI257
aI8450
aI8457
aI8459
aI8463
aI8464
aI8465
aI8469
aI8475
aI284
aI285
aI8479
aI8480
aI8481
aI8487
aI8489
aI8490
aI8494
aI8496
aI8498
aI8503
aI312
aI8507
aI319
aI322
aI323
aI324
aI8518
aI332
aI333
aI8526
aI8527
aI8530
aI8534
aI8535
aI344
aI346
aI348
aI351
aI8544
aI1424
aI8546
aI8549
aI358
aI8562
aI8565
aI379
aI8573
aI8575
aI384
aI8256
aI386
aI8579
aI8584
aI8585
aI8258
aI399
aI8595
aI406
aI407
aI8601
aI410
aI411
aI413
aI8606
aI8609
aI8611
aI420
aI8614
aI8618
aI8619
aI8620
aI8625
aI8628
aI8265
aI440
aI442
aI8639
aI8645
aI8647
aI8654
aI8269
aI8660
aI8664
aI8668
aI477
aI481
aI8674
aI8273
aI8685
aI495
aI496
aI8689
aI8690
aI501
aI8698
aI8708
aI8710
aI519
aI8713
aI529
aI532
aI8728
aI541
aI8734
aI546
aI8739
aI92
aI555
aI563
aI8763
aI581
aI8775
aI8778
aI8784
aI8791
aI600
aI8794
aI8797
aI8798
aI612
aI8805
aI8807
aI8813
aI8817
aI8818
aI8821
aI8822
aI8827
aI636
aI643
aI8836
aI648
aI651
aI8851
aI8854
aI8856
aI8857
aI666
aI8859
aI668
aI669
aI670
aI8867
aI8876
aI8877
aI8878
aI8882
aI8883
aI8885
aI8886
aI8891
aI701
aI703
aI704
aI705
aI8898
aI8899
aI8901
aI8902
aI8905
aI8909
aI8910
aI8914
aI8916
aI725
aI8922
aI738
aI739
aI8932
aI8934
aI8936
aI746
aI8940
aI8943
aI8946
aI8950
aI8955
aI8960
aI8961
aI8964
aI773
aI8966
aI775
aI8969
aI780
aI8978
aI787
aI8982
aI8983
aI8988
aI8991
aI8993
aI815
aI9009
aI9011
aI820
aI9014
aI9018
aI9019
aI828
aI9023
aI9033
aI9038
aI9041
aI9042
aI9050
aI9060
aI9064
aI9066
aI9068
aI877
aI9070
aI879
aI9072
aI884
aI9077
aI9079
aI9083
aI9086
aI897
aI8343
aI9102
aI9105
aI9107
aI9113
aI924
aI9117
aI927
aI929
aI931
aI938
aI944
aI9137
aI946
aI948
aI958
aI9153
aI9156
aI9162
aI9165
aI9169
aI980
aI981
aI9175
aI9176
aI9179
aI993
aI9186
aI9188
aI9189
aI9191
aI9200
aI1010
aI9726
aI9218
aI9220
aI9221
aI9222
aI1033
aI9226
aI9227
aI9230
aI9236
aI9242
aI9244
aI1058
aI1064
aI1069
aI9263
aI9268
aI9271
aI1081
aI9275
aI1084
aI9282
aI1098
aI1101
aI9295
aI9299
aI9302
aI9305
aI9306
aI9311
aI1125
aI9321
aI9323
aI1135
aI9328
aI9333
aI9337
aI9343
aI9344
aI9355
aI1165
aI9361
aI9363
aI9366
aI9370
aI9371
aI9374
aI9381
aI9382
aI9383
aI1194
aI9387
aI9390
aI9392
aI1202
aI9397
aI9398
aI9401
aI9402
aI9410
aI9417
aI9418
aI1228
aI9426
aI9428
aI1238
aI9432
aI9435
aI1244
aI1245
aI1248
aI9441
aI1252
aI9449
aI9450
aI9456
aI1265
aI9458
aI9460
aI1277
aI213
aI1281
aI9480
aI1291
aI9488
aI9489
aI1298
aI9496
aI9499
aI9502
aI9504
aI9506
aI1318
aI9512
aI9518
aI9524
aI9530
aI1340
aI9535
aI9536
aI9538
aI9542
aI1353
aI9547
aI9551
aI9555
aI9558
aI1370
aI9563
aI9565
aI9567
aI9570
aI9587
aI9589
aI9590
aI1399
aI9592
aI9598
aI9607
aI1419
aI9616
aI9617
aI9619
aI9621
aI9628
aI9629
aI9630
aI9631
aI9636
aI9644
aI9645
aI9650
aI9651
aI1462
aI9656
aI1467
aI9662
aI1471
aI9666
aI9669
aI1482
aI1484
aI9680
aI9691
aI9692
aI9699
aI1508
aI9706
aI9710
aI1520
aI1531
aI9724
aI1534
aI9727
aI1537
aI9734
aI9735
aI9737
aI9746
aI1556
aI9756
aI1568
aI9761
aI9762
aI9763
aI9764
aI9765
aI9774
aI9776
aI9778
aI9781
aI9782
aI1596
aI9791
aI9793
aI1605
aI1607
aI9802
aI1612
aI9805
aI9806
aI1618
aI9818
aI9828
aI1637
aI9832
aI9838
aI9842
aI9843
aI9851
aI9853
aI9854
aI9855
aI9857
aI9861
aI9862
aI9871
aI9873
aI9881
aI9882
aI9887
aI9888
aI9891
aI9893
aI9894
aI9898
aI9899
aI9904
aI9906
aI9917
aI9920
aI9922
aI9924
aI9928
aI9945
aI9947
aI9949
aI9953
aI9957
aI9970
aI9974
aI9976
aI9978
aI9983
aI9988
aI9998
aI10001
aI10007
aI10009
aI10013
aI10020
aI10021
aI10022
aI10026
aI10030
aI10039
aI10040
aI10042
aI8245
aI10049
aI10055
aI10056
aI10062
aI10071
aI10076
aI10093
aI10094
aI10098
aI10100
aI10101
aI10102
aI10103
aI10112
aI10113
aI8514
aI10133
aI8516
aI10145
aI10149
aI1429
aI10154
aI10157
aI10158
aI10161
aI10163
aI10165
aI10170
aI10189
aI10201
aI10203
aI10207
aI10218
aI10225
aI10232
aI10233
aI10235
aI10237
aI10240
aI10258
aI10259
aI10260
aI10263
aI10267
aI10275
aI10277
aI10297
aI10303
aI10305
aI10308
aI10309
aI10313
aI10314
aI10318
aI10319
aI10345
aI10350
aI10351
aI10365
aI10373
aI10378
aI10384
aI10388
aI10390
aI10393
aI10705
aI8612
aI8632
aI2643
aI2645
aI2662
aI2678
aI2692
aI2698
aI2700
aI2719
aI2738
aI2744
aI2745
aI2746
aI2784
aI2789
aI2794
aI2802
aI2806
aI2810
aI2823
aI2827
aI84905
aI8693
aI8721
aI10137
aI621
aI3845
aI3847
aI3849
aI3857
aI3859
aI3860
aI3871
aI3885
aI8840
aI3890
aI3900
aI12098
aI8843
aI3926
aI3934
aI3940
aI3962
aI3965
aI3966
aI3969
aI3983
aI3993
aI4012
aI4018
aI4049
aI4050
aI4051
aI4064
aI4070
aI4091
aI4092
aI4108
aI4125
aI4140
aI4142
aI4146
aI4162
aI4171
aI4184
aI4187
aI94323
aI4216
aI4226
aI4227
aI4231
aI4234
aI4249
aI12454
aI4269
aI4277
aI4284
aI4285
aI4293
aI4313
aI4315
aI4317
aI4318
aI4332
aI4335
aI4340
aI4342
aI4355
aI4360
aI4373
aI4384
aI4394
aI4429
aI4437
aI4438
aI4442
aI4448
aI4455
aI4457
aI4461
aI4462
aI4467
aI4469
aI4472
aI4473
aI4475
aI4479
aI4481
aI4485
aI4488
aI4491
aI4493
aI4497
aI4498
aI4499
aI4503
aI4506
aI4507
aI4509
aI4514
aI4517
aI4519
aI4523
aI4524
aI4529
aI4530
aI4533
aI4536
aI4539
aI4545
aI4549
aI4552
aI4553
aI4554
aI4555
aI4556
aI4560
aI4567
aI4570
aI4577
aI4579
aI8965
aI8979
aI9797
aI819
aI8358
aI9069
aI907
aI9185
aI9748
aI5585
aI5591
aI5593
aI5596
aI5597
aI5599
aI5601
aI5608
aI5609
aI5611
aI5613
aI5614
aI5615
aI5619
aI5621
aI5622
aI5623
aI5628
aI5630
aI5631
aI5632
aI5634
aI5635
aI5644
aI5647
aI5658
aI9136
aI5668
aI5671
aI5674
aI5676
aI5677
aI5678
aI5688
aI5698
aI5699
aI5702
aI5705
aI5711
aI5712
aI5714
aI5715
aI5716
aI5717
aI5718
aI5723
aI5724
aI5725
aI5735
aI5737
aI5740
aI5741
aI5742
aI5744
aI5745
aI5755
aI5758
aI5760
aI5761
aI5762
aI5763
aI5771
aI5776
aI5790
aI5796
aI5807
aI5809
aI5815
aI5819
aI5820
aI5824
aI5829
aI5831
aI5836
aI5838
aI5839
aI5843
aI5845
aI5847
aI5851
aI5857
aI5869
aI9172
aI9173
aI5893
aI5894
aI5900
aI5912
aI5913
aI5914
aI5920
aI5921
aI5922
aI5927
aI5929
aI5930
aI5939
aI5944
aI5945
aI5955
aI5958
aI5959
aI5962
aI5963
aI5964
aI5965
aI5967
aI5973
aI5981
aI5983
aI5985
aI5986
aI5988
aI5995
aI5997
aI6003
aI6005
aI6013
aI6017
aI6019
aI6022
aI6025
aI6026
aI6029
aI6030
aI6033
aI6034
aI6036
aI6037
aI6043
aI6049
aI6053
aI6055
aI6063
aI6064
aI6066
aI6069
aI6071
aI6073
aI6075
aI6078
aI6081
aI6082
aI6083
aI6084
aI6085
aI6086
aI6087
aI6088
aI6089
aI6092
aI6093
aI6096
aI6099
aI6108
aI6109
aI6110
aI6113
aI6114
aI6117
aI6118
aI6121
aI6123
aI6132
aI6139
aI6144
aI6151
aI6174
aI6179
aI6185
aI6190
aI6192
aI6194
aI6196
aI6208
aI6210
aI6211
aI6215
aI6216
aI6221
aI6222
aI6233
aI6239
aI6240
aI6251
aI6253
aI6255
aI6257
aI6258
aI6259
aI6266
aI6271
aI6272
aI6273
aI6275
aI6278
aI6279
aI6280
aI6282
aI6289
aI6291
aI6292
aI6296
aI6299
aI6301
aI6302
aI6308
aI6310
aI6312
aI6313
aI6319
aI6322
aI6332
aI6333
aI6334
aI6346
aI6348
aI6355
aI6357
aI6359
aI6364
aI6366
aI6367
aI6377
aI9256
aI6388
aI6390
aI6393
aI6394
aI6397
aI6398
aI6399
aI6405
aI6413
aI6414
aI6416
aI6417
aI6418
aI6421
aI6436
aI6444
aI6448
aI6450
aI6455
aI6462
aI6470
aI6471
aI6475
aI6478
aI6480
aI6482
aI6485
aI6489
aI6491
aI6492
aI6494
aI6495
aI6497
aI6498
aI6501
aI6502
aI6505
aI6508
aI6511
aI6512
aI6514
aI6518
aI6523
aI6524
aI6525
aI6534
aI6542
aI6587
aI6588
aI6589
aI6593
aI6611
aI6618
aI6619
aI6621
aI6623
aI6631
aI6635
aI6636
aI6637
aI6641
aI6644
aI6645
aI6655
aI6657
aI6659
aI6660
aI6661
aI6665
aI6670
aI6674
aI6678
aI6683
aI6684
aI6686
aI6688
aI6690
aI6695
aI6696
aI6705
aI6707
aI6715
aI6723
aI6730
aI6733
aI6734
aI6738
aI6739
aI6742
aI6743
aI6745
aI6756
aI6758
aI6762
aI6763
aI6764
aI6766
aI6770
aI6771
aI6777
aI6786
aI6787
aI6789
aI6791
aI6803
aI6807
aI6815
aI6816
aI6820
aI6821
aI6823
aI6838
aI6843
aI6848
aI6853
aI6854
aI6855
aI6856
aI6860
aI6861
aI6862
aI6864
aI6866
aI6868
aI6878
aI6879
aI6898
aI6903
aI6904
aI6905
aI6912
aI6915
aI6920
aI6928
aI6930
aI6931
aI6932
aI6934
aI6936
aI6942
aI6947
aI6948
aI6949
aI6956
aI6957
aI6958
aI6959
aI6962
aI6966
aI6969
aI6970
aI6972
aI6976
aI6977
aI6980
aI6983
aI6984
aI6987
aI6998
aI7004
aI7007
aI7008
aI7010
aI7014
aI7021
aI7026
aI1171
aI7031
aI7036
aI7042
aI7043
aI1174
aI7047
aI7050
aI3906
aI7054
aI7055
aI7056
aI7059
aI7061
aI7065
aI7075
aI7081
aI7090
aI7092
aI7096
aI7099
aI7100
aI7102
aI7108
aI7112
aI7120
aI7121
aI7127
aI7129
aI7134
aI7135
aI1190
aI7142
aI7143
aI7149
aI7151
aI7156
aI7157
aI7158
aI7159
aI7160
aI7161
aI7169
aI7173
aI7184
aI7186
aI7195
aI7196
aI7198
aI7204
aI7216
aI7218
aI7219
aI7220
aI7221
aI7223
aI7226
aI7227
aI7229
aI7232
aI7237
aI7245
aI7249
aI7251
aI7261
aI7262
aI7265
aI7266
aI7269
aI7270
aI7271
aI7280
aI7281
aI7287
aI7289
aI7290
aI7291
aI7295
aI7296
aI7297
aI7298
aI7301
aI7302
aI7305
aI7307
aI7308
aI7309
aI7310
aI7312
aI7313
aI7317
aI7324
aI7326
aI7328
aI7329
aI7335
aI7338
aI7340
aI7345
aI7349
aI7354
aI7357
aI7366
aI7367
aI7372
aI7379
aI7380
aI7381
aI7382
aI7393
aI7396
aI7398
aI7401
aI7407
aI7410
aI7413
aI7421
aI7425
aI7428
aI7430
aI7437
aI7438
aI7444
aI7450
aI1243
aI7469
aI7474
aI7489
aI7493
aI7494
aI7502
aI7503
aI7529
aI7537
aI7551
aI7555
aI7557
aI7558
aI7561
aI7562
aI7570
aI7571
aI7573
aI7576
aI7580
aI7582
aI7583
aI7584
aI7585
aI7586
aI7589
aI7595
aI7597
aI7598
aI7623
aI7624
aI7625
aI7627
aI7636
aI7639
aI7641
aI7642
aI7644
aI7648
aI7650
aI7651
aI7653
aI7659
aI7664
aI7665
aI7672
aI7678
aI7683
aI7696
aI7698
aI7704
aI7705
aI7711
aI7717
aI7719
aI7720
aI7722
aI7724
aI7726
aI7728
aI7730
aI7731
aI7735
aI7736
aI7741
aI7744
aI7745
aI7746
aI7748
aI7751
aI7758
aI7760
aI7763
aI7764
aI7767
aI7773
aI7775
aI7776
aI7779
aI7786
aI7790
aI7792
aI7793
aI7795
aI7797
aI7799
aI7802
aI7805
aI7808
aI7817
aI7820
aI7828
aI7831
aI7837
aI7840
aI7841
aI7845
aI7847
aI7848
aI7854
aI7857
aI7859
aI7866
aI7868
aI7880
aI7881
aI7886
aI7891
aI7894
aI7900
aI7902
aI7903
aI7904
aI7908
aI7916
aI7919
aI7920
aI7921
aI7928
aI7929
aI7930
aI7934
aI7935
aI7937
aI7945
aI7947
aI7948
aI7953
aI7957
aI7960
aI7962
aI7963
aI7970
aI7974
aI7975
aI7978
aI7980
aI1035
aI7988
aI7992
aI7995
aI7998
aI8005
aI8009
aI8022
aI8024
aI8026
aI8030
aI8032
aI8034
aI8038
aI8039
aI8041
aI8042
aI8047
aI8048
aI8049
aI8053
aI8055
aI8056
aI8058
aI8060
aI8062
aI8065
aI8066
aI8067
aI8072
aI8075
aI8079
aI8081
aI8083
aI8084
aI8085
aI8086
aI8088
aI8089
aI8092
aI8093
aI8094
aI8096
aI8098
aI8099
aI8101
aI8104
aI8108
aI8112
aI8115
aI8122
aI8123
aI8132
aI8134
aI8138
aI8142
aI8146
aI8147
aI8148
aI8149
aI8152
aI8162
aI8163
aI8164
aI8177
aI8180
aI8183
aI8185
aI8189
aI8190
aI8191
atp2
Rp3
.