c__builtin__
set
p0
((lp1
I196611
aI196612
aI163847
aI196621
aI98318
aI196629
aI25
aI196634
aI196643
aI196649
aI196656
aI196668
aI196669
aI196671
aI196680
aI131145
aI196689
aI163922
aI196695
aI131164
aI163938
aI196707
aI196708
aI196712
aI196715
aI196716
aI196720
aI196722
aI98420
aI196725
aI118
aI196728
aI196734
aI196740
aI163977
aI196747
aI196748
aI196749
aI186588
aI196757
aI196764
aI196766
aI159
aI196770
aI196772
aI196777
aI196781
aI131246
aI164015
aI164019
aI196788
aI196797
aI196798
aI196803
aI196805
aI27340
aI196812
aI196820
aI196822
aI164060
aI164061
aI196830
aI196837
aI230
aI164075
aI196845
aI196846
aI131317
aI131320
aI250
aI196860
aI196861
aI196863
aI196864
aI196866
aI196868
aI196869
aI264
aI202114
aI196880
aI196884
aI279
aI194658
aI196889
aI196891
aI164129
aI196898
aI196900
aI196902
aI196904
aI196908
aI196910
aI196911
aI164144
aI196916
aI196925
aI131391
aI196928
aI131394
aI98627
aI196932
aI196936
aI131402
aI196939
aI196940
aI131407
aI196945
aI164179
aI196948
aI196949
aI98646
aI196951
aI196952
aI196954
aI196956
aI131422
aI196960
aI196961
aI196966
aI196968
aI180284
aI164202
aI98670
aI196975
aI196976
aI196978
aI196983
aI98682
aI196988
aI196990
aI196997
aI164236
aI197007
aI197008
aI197017
aI197022
aI197023
aI131490
aI202139
aI197030
aI197036
aI197041
aI197044
aI197045
aI197046
aI164279
aI197049
aI442
aI197051
aI202144
aI98755
aI197060
aI197065
aI197066
aI197068
aI197070
aI197073
aI131538
aI197077
aI197078
aI197079
aI197086
aI197089
aI164324
aI485
aI197095
aI197097
aI197098
aI197102
aI197104
aI197105
aI197106
aI197107
aI197109
aI197114
aI197115
aI197116
aI131586
aI164356
aI98821
aI158465
aI197129
aI197131
aI197135
aI529
aI131602
aI164372
aI197145
aI197148
aI197156
aI197161
aI197164
aI557
aI197167
aI197170
aI197171
aI197173
aI197176
aI197179
aI573
aI197183
aI197186
aI197188
aI197191
aI197192
aI197193
aI197194
aI197197
aI98894
aI197203
aI164436
aI197205
aI197208
aI601
aI603
aI609
aI197219
aI197221
aI131686
aI98920
aI197225
aI197226
aI164461
aI197234
aI66166
aI197239
aI197240
aI197243
aI131708
aI98942
aI98943
aI197252
aI197258
aI197260
aI66192
aI197265
aI131732
aI197270
aI197272
aI197285
aI197287
aI98985
aI684
aI686
aI98991
aI66228
aI197304
aI197307
aI131772
aI197311
aI164546
aI197315
aI197317
aI99016
aI164556
aI197327
aI197330
aI164563
aI197332
aI197335
aI197336
aI732
aI197343
aI197349
aI197350
aI197353
aI197357
aI197358
aI66287
aI197362
aI164598
aI164600
aI197373
aI27283
aI99072
aI197379
aI197380
aI164615
aI197384
aI197391
aI197398
aI197399
aI197411
aI164644
aI66341
aI197415
aI99112
aI197417
aI197421
aI197430
aI196745
aI197432
aI197434
aI197435
aI197439
aI66368
aI131212
aI197450
aI845
aI66383
aI197457
aI197458
aI197459
aI131924
aI197464
aI197465
aI858
aI197468
aI197471
aI197475
aI197478
aI197483
aI197487
aI197488
aI197490
aI131956
aI887
aI892
aI131965
aI197502
aI197508
aI197512
aI131977
aI197520
aI197521
aI197523
aI197524
aI197526
aI919
aI197528
aI66461
aI197534
aI164775
aI197544
aI99241
aI197551
aI132017
aI66482
aI164792
aI197556
aI197557
aI197558
aI132024
aI197561
aI164794
aI164796
aI197566
aI961
aI197572
aI164808
aI99274
aI197583
aI197587
aI132054
aI197591
aI197593
aI197595
aI197610
aI1004
aI197613
aI197614
aI197615
aI164850
aI197621
aI197622
aI1021
aI197630
aI197634
aI197635
aI197640
aI99338
aI197646
aI132111
aI197653
aI197654
aI1047
aI197658
aI131247
aI197661
aI197669
aI132137
aI197674
aI197681
aI197682
aI197685
aI197690
aI197691
aI197694
aI99392
aI197699
aI99398
aI197704
aI164937
aI1098
aI197707
aI1104
aI197713
aI66645
aI197718
aI197719
aI99421
aI132195
aI197733
aI197734
aI197735
aI197736
aI197737
aI197744
aI99443
aI197748
aI99445
aI197753
aI1150
aI197760
aI164994
aI197763
aI66697
aI197770
aI197775
aI197777
aI197781
aI197785
aI197787
aI165020
aI197789
aI66718
aI1191
aI197802
aI197807
aI165042
aI197811
aI99514
aI197823
aI165057
aI132292
aI197829
aI197830
aI165064
aI132297
aI197834
aI204082
aI197838
aI197843
aI197844
aI1247
aI197857
aI197858
aI165095
aI132336
aI197873
aI197875
aI191358
aI131284
aI197884
aI197885
aI197888
aI197890
aI197893
aI197897
aI114903
aI197902
aI197904
aI99604
aI197914
aI197916
aI197917
aI197918
aI197919
aI197920
aI165154
aI1320
aI197929
aI99633
aI165179
aI197949
aI1345
aI197954
aI197955
aI132422
aI1352
aI197961
aI197964
aI197967
aI197969
aI197975
aI197976
aI197979
aI132444
aI165214
aI197985
aI197990
aI99688
aI197993
aI1390
aI198000
aI198005
aI198011
aI165246
aI198017
aI198021
aI1417
aI198028
aI132496
aI198036
aI165273
aI16623
aI198044
aI198045
aI198046
aI66985
aI198061
aI198062
aI165302
aI20780
aI198072
aI198074
aI165307
aI165308
aI198084
aI175721
aI198089
aI198091
aI99791
aI132562
aI198108
aI198110
aI198112
aI67042
aI132589
aI132593
aI198131
aI132597
aI165369
aI198138
aI198140
aI198141
aI198150
aI198152
aI198153
aI198154
aI198156
aI198158
aI198159
aI198170
aI198175
aI198177
aI191000
aI198183
aI198184
aI132651
aI198188
aI198189
aI198190
aI198192
aI131336
aI132659
aI198197
aI67137
aI198216
aI132682
aI1611
aI202338
aI99918
aI198223
aI198224
aI198225
aI198229
aI132697
aI58975
aI198236
aI198237
aI99938
aI198244
aI99941
aI198246
aI198247
aI198248
aI109500
aI198253
aI198254
aI67183
aI198257
aI198263
aI99963
aI99969
aI198274
aI198276
aI198278
aI198281
aI1679
aI132754
aI198292
aI198299
aI198301
aI99999
aI198304
aI132770
aI132772
aI198309
aI1704
aI198313
aI198314
aI198321
aI198323
aI198324
aI198326
aI198327
aI100026
aI198331
aI100030
aI202357
aI198336
aI198338
aI198339
aI200778
aI198346
aI1739
aI198349
aI198350
aI198354
aI198357
aI198360
aI198363
aI198364
aI165597
aI1764
aI198379
aI165615
aI100080
aI100081
aI198386
aI198388
aI198389
aI198394
aI132863
aI198400
aI198402
aI67331
aI132870
aI198407
aI198408
aI132874
aI1803
aI198413
aI198414
aI100113
aI198419
aI34581
aI100121
aI1818
aI34591
aI198434
aI132899
aI198437
aI198438
aI198442
aI198444
aI198446
aI198450
aI198451
aI165686
aI198455
aI198458
aI34623
aI198465
aI198466
aI198469
aI198473
aI198474
aI198477
aI198480
aI67413
aI198488
aI198494
aI198498
aI100197
aI198503
aI132971
aI165744
aI198514
aI198519
aI67450
aI198525
aI198532
aI132997
aI198535
aI100233
aI198541
aI1934
aI198546
aI198551
aI1945
aI198555
aI165791
aI165792
aI133025
aI198565
aI198569
aI198570
aI198571
aI198577
aI198581
aI198584
aI198587
aI196938
aI198591
aI133062
aI133063
aI198600
aI100300
aI198606
aI198607
aI198608
aI202403
aI198612
aI198617
aI198621
aI100319
aI2018
aI198628
aI202406
aI198630
aI198635
aI165871
aI198640
aI198641
aI198645
aI198648
aI100345
aI2043
aI198656
aI133125
aI198663
aI198669
aI198670
aI198671
aI100369
aI198675
aI100372
aI198677
aI198678
aI165915
aI34847
aI198688
aI2083
aI198692
aI198695
aI2091
aI198700
aI202418
aI100401
aI196958
aI165944
aI198713
aI198715
aI198718
aI100419
aI2116
aI165961
aI198731
aI133197
aI2126
aI2129
aI198739
aI198740
aI198741
aI67675
aI133220
aI198762
aI121187
aI198765
aI100462
aI93909
aI198773
aI198784
aI67715
aI198789
aI166026
aI100493
aI198800
aI198802
aI198806
aI202436
aI166043
aI67740
aI202437
aI98672
aI133284
aI198822
aI198823
aI198825
aI198828
aI198829
aI198831
aI166075
aI198845
aI198846
aI198848
aI67778
aI133318
aI198858
aI35019
aI166093
aI67791
aI198864
aI198866
aI198868
aI67799
aI198873
aI100571
aI196986
aI198882
aI198890
aI198891
aI166125
aI67822
aI198896
aI2294
aI198904
aI198910
aI133377
aI133381
aI2310
aI133387
aI198924
aI27693
aI198932
aI198933
aI198936
aI206301
aI198940
aI198941
aI2339
aI35114
aI198955
aI109618
aI198959
aI198962
aI67892
aI198967
aI67896
aI35131
aI198973
aI133438
aI100673
aI197004
aI198988
aI198990
aI166223
aI165931
aI198998
aI198999
aI2392
aI199001
aI199002
aI199006
aI199011
aI133476
aI199014
aI199015
aI199016
aI199017
aI199018
aI199020
aI199023
aI35185
aI199026
aI199028
aI199035
aI166270
aI199043
aI199044
aI199047
aI199048
aI115741
aI199056
aI100753
aI199061
aI199063
aI199066
aI199067
aI199073
aI199075
aI68006
aI199080
aI199083
aI199084
aI199085
aI199086
aI199087
aI199092
aI166327
aI133560
aI133561
aI133562
aI133571
aI199108
aI199115
aI180642
aI166351
aI68050
aI199124
aI199126
aI199127
aI199128
aI199132
aI2526
aI207952
aI100838
aI189941
aI199150
aI199151
aI133616
aI199154
aI199157
aI199158
aI100855
aI199161
aI166395
aI199164
aI199172
aI166405
aI199177
aI199178
aI199179
aI133645
aI199186
aI199189
aI199192
aI100889
aI199195
aI166428
aI199199
aI166434
aI166437
aI199206
aI199210
aI166444
aI199214
aI199216
aI166450
aI199220
aI199221
aI199222
aI199224
aI199225
aI199227
aI199230
aI133695
aI35393
aI199234
aI199236
aI100934
aI68170
aI199249
aI199252
aI199258
aI2652
aI2669
aI133742
aI166514
aI166526
aI68224
aI35457
aI35463
aI133771
aI2721
aI35490
aI101028
aI166569
aI68268
aI133813
aI27765
aI29915
aI68301
aI101070
aI35535
aI35536
aI35537
aI133845
aI68313
aI166625
aI133858
aI68323
aI101096
aI101098
aI5927
aI197074
aI2798
aI68341
aI68348
aI35582
aI35584
aI2817
aI35587
aI133901
aI101137
aI202542
aI2849
aI101156
aI2860
aI68400
aI133937
aI68407
aI133954
aI35660
aI2894
aI101199
aI101204
aI147940
aI68444
aI2914
aI2917
aI133992
aI133995
aI166774
aI2958
aI206322
aI35733
aI101274
aI166819
aI82418
aI166832
aI68545
aI35780
aI3019
aI68563
aI101334
aI166873
aI35802
aI166880
aI191657
aI166914
aI16897
aI3084
aI68622
aI166930
aI166954
aI35887
aI101426
aI44213
aI166983
aI3162
aI164367
aI134239
aI134240
aI115216
aI197137
aI3178
aI3186
aI202602
aI101507
aI167048
aI35989
aI101540
aI202609
aI68803
aI3269
aI36041
aI3277
aI60621
aI134369
aI167138
aI3305
aI82729
aI167157
aI68868
aI167175
aI59032
aI197165
aI36115
aI167193
aI134445
aI134446
aI167217
aI3382
aI68921
aI36154
aI137595
aI36171
aI134479
aI3411
aI101717
aI36183
aI101724
aI131643
aI134504
aI36206
aI197181
aI101752
aI36217
aI167299
aI36229
aI3468
aI175341
aI134545
aI69015
aI131652
aI36251
aI3485
aI36263
aI101802
aI98887
aI101808
aI148041
aI69057
aI134598
aI36302
aI101844
aI167382
aI36312
aI148047
aI36316
aI36320
aI157241
aI36335
aI134640
aI3572
aI167418
aI3579
aI36351
aI69128
aI167434
aI3601
aI134678
aI69143
aI36377
aI101916
aI36381
aI3614
aI134691
aI167482
aI36411
aI200260
aI200261
aI36423
aI200268
aI200269
aI69205
aI134748
aI200285
aI200288
aI200289
aI200295
aI200296
aI200297
aI36459
aI200300
aI200307
aI36468
aI200310
aI200312
aI102015
aI200323
aI167556
aI200325
aI69254
aI200328
aI200330
aI200331
aI200333
aI134799
aI200342
aI200353
aI200360
aI200361
aI134827
aI167597
aI200368
aI200372
aI200375
aI200379
aI36540
aI200383
aI200384
aI102081
aI200388
aI200389
aI200390
aI167624
aI200396
aI200398
aI200400
aI200402
aI200403
aI36564
aI200406
aI200408
aI200409
aI93477
aI200417
aI102117
aI200426
aI200427
aI200433
aI167666
aI200435
aI200438
aI134903
aI134904
aI36601
aI102139
aI200444
aI200445
aI69374
aI200450
aI69382
aI200456
aI134925
aI200465
aI200466
aI167701
aI200470
aI3867
aI102176
aI36643
aI69413
aI69416
aI134955
aI200492
aI134958
aI102192
aI200497
aI200498
aI191795
aI200501
aI200504
aI200509
aI134975
aI200512
aI134978
aI167751
aI200520
aI36682
aI102219
aI200524
aI3919
aI200528
aI200530
aI200532
aI167773
aI200543
aI200545
aI167778
aI102244
aI200552
aI102253
aI200558
aI200562
aI200566
aI36727
aI102265
aI200572
aI69501
aI36738
aI167811
aI102277
aI69510
aI200587
aI200591
aI200593
aI200599
aI200601
aI167835
aI200607
aI36769
aI69544
aI200620
aI200627
aI200629
aI69560
aI102330
aI200640
aI200645
aI102345
aI102349
aI135120
aI200659
aI102356
aI200661
aI200664
aI200668
aI200671
aI200675
aI200678
aI36842
aI200685
aI200688
aI200692
aI202750
aI36854
aI135160
aI200698
aI36862
aI102399
aI200704
aI200710
aI102407
aI200712
aI69644
aI200718
aI200720
aI167954
aI135187
aI200725
aI167958
aI200729
aI200731
aI200732
aI200739
aI200742
aI200743
aI69673
aI200749
aI167982
aI200754
aI200759
aI200761
aI200762
aI200763
aI69700
aI36938
aI4173
aI200782
aI200790
aI200791
aI206363
aI200801
aI36962
aI135273
aI200810
aI200813
aI200818
aI200819
aI200820
aI200823
aI200824
aI200826
aI135291
aI200831
aI168067
aI200836
aI200839
aI200840
aI200841
aI102541
aI200847
aI200848
aI150717
aI200853
aI200854
aI200855
aI135322
aI200859
aI4253
aI200863
aI200867
aI200869
aI200870
aI168105
aI102573
aI69806
aI200881
aI200882
aI200886
aI200887
aI69821
aI102591
aI200896
aI162721
aI168133
aI200902
aI200907
aI102604
aI200909
aI200913
aI200915
aI135382
aI200920
aI168153
aI200923
aI200924
aI135389
aI200930
aI37091
aI200933
aI200936
aI168169
aI168170
aI200944
aI200951
aI69880
aI102655
aI126716
aI175489
aI168203
aI200972
aI4370
aI200982
aI168215
aI4376
aI200985
aI200986
aI200989
aI135455
aI135461
aI137265
aI201001
aI201002
aI4398
aI201007
aI64523
aI201010
aI201015
aI201016
aI201026
aI201028
aI201030
aI102729
aI4426
aI37198
aI205280
aI201046
aI201053
aI201054
aI201055
aI37217
aI168293
aI201062
aI201070
aI69999
aI70002
aI70004
aI201078
aI201086
aI201087
aI201090
aI201091
aI201093
aI168331
aI201102
aI201104
aI70033
aI201107
aI70036
aI102805
aI201110
aI4505
aI201115
aI37276
aI37280
aI201129
aI102836
aI102838
aI201144
aI37306
aI201147
aI201155
aI201156
aI201158
aI201160
aI168394
aI201164
aI201172
aI102869
aI37337
aI102879
aI4579
aI201190
aI201199
aI102901
aI4598
aI168440
aI159458
aI201210
aI201217
aI201218
aI201223
aI168460
aI201235
aI102933
aI201238
aI37400
aI168473
aI201244
aI201247
aI201256
aI70189
aI201263
aI191923
aI135732
aI37429
aI201274
aI201275
aI201282
aI79808
aI37451
aI201299
aI201303
aI202852
aI66319
aI4704
aI4705
aI37483
aI201327
aI103027
aI103028
aI201334
aI201338
aI103035
aI201340
aI168574
aI201347
aI201348
aI201351
aI201353
aI201356
aI202017
aI4752
aI4753
aI201363
aI201370
aI168607
aI201381
aI201382
aI103085
aI201393
aI201395
aI201396
aI201397
aI201402
aI70331
aI201408
aI201415
aI201419
aI201423
aI201427
aI191950
aI201431
aI201432
aI197412
aI201434
aI197413
aI201441
aI201443
aI201446
aI4839
aI201448
aI201450
aI103147
aI103149
aI103153
aI201463
aI37632
aI201474
aI103172
aI135943
aI201480
aI201482
aI201483
aI168718
aI201490
aI201491
aI168725
aI168731
aI4894
aI201507
aI201516
aI201518
aI168779
aI201548
aI201550
aI201551
aI103251
aI201558
aI201561
aI168796
aI201568
aI201569
aI103274
aI168813
aI37742
aI201584
aI4980
aI201589
aI37751
aI201595
aI201607
aI70540
aI201613
aI28141
aI201617
aI201618
aI37780
aI136085
aI201623
aI201627
aI168863
aI168864
aI201634
aI37796
aI201637
aI136102
aI70569
aI136109
aI201647
aI191987
aI153758
aI168887
aI201657
aI842
aI201662
aI201663
aI201664
aI201667
aI201670
aI201673
aI201674
aI201681
aI201682
aI201683
aI168919
aI201688
aI201691
aI201695
aI168929
aI201703
aI201705
aI136172
aI168941
aI70642
aI66387
aI201716
aI191998
aI201721
aI201724
aI201725
aI201726
aI201728
aI201732
aI201733
aI201735
aI201737
aI201739
aI136207
aI201744
aI201747
aI201749
aI201750
aI201752
aI168985
aI201755
aI197466
aI201758
aI201761
aI201764
aI169001
aI201770
aI201772
aI201778
aI201781
aI5176
aI201785
aI201789
aI201795
aI103498
aI201805
aI136270
aI201807
aI201809
aI201810
aI136275
aI201812
aI201814
aI201815
aI136281
aI201819
aI190030
aI201821
aI103520
aI103526
aI201831
aI5226
aI201835
aI201837
aI70768
aI41637
aI201845
aI206398
aI70786
aI201868
aI70798
aI201871
aI202947
aI201876
aI201878
aI201881
aI201882
aI103586
aI169126
aI201899
aI70828
aI201908
aI38069
aI71882
aI38088
aI201929
aI201930
aI201932
aI5327
aI201940
aI70870
aI201947
aI201951
aI201952
aI201953
aI201954
aI103651
aI201958
aI169193
aI201964
aI38125
aI201968
aI201972
aI201975
aI136441
aI201979
aI5372
aI201982
aI201983
aI38146
aI201987
aI70919
aI201992
aI201993
aI201995
aI201996
aI201997
aI169238
aI202007
aI136472
aI164740
aI202015
aI142896
aI202020
aI38185
aI202026
aI202028
aI202032
aI197513
aI202040
aI202051
aI202054
aI136525
aI202063
aI11832
aI202066
aI169299
aI53647
aI5464
aI169306
aI202076
aI202077
aI202083
aI202085
aI202087
aI136556
aI202098
aI136563
aI202102
aI202104
aI202105
aI202108
aI202986
aI5503
aI136578
aI136579
aI202118
aI197527
aI202126
aI202129
aI202130
aI202132
aI202133
aI202136
aI71067
aI202142
aI136607
aI5536
aI202145
aI202146
aI103847
aI169384
aI202153
aI136619
aI202159
aI202162
aI202167
aI202170
aI169403
aI5569
aI202178
aI61003
aI38347
aI103887
aI103889
aI202194
aI136661
aI202198
aI202200
aI202203
aI202207
aI169444
aI99239
aI202226
aI202228
aI202229
aI202234
aI38398
aI202257
aI202265
aI5659
aI202268
aI169504
aI192091
aI136746
aI202283
aI202284
aI202293
aI202294
aI202298
aI5691
aI202302
aI132021
aI136768
aI181174
aI38471
aI202317
aI202319
aI197560
aI202323
aI66489
aI38488
aI136802
aI169571
aI202342
aI202343
aI202344
aI5739
aI202354
aI202355
aI136821
aI202358
aI136823
aI104061
aI169600
aI71297
aI169605
aI202377
aI71306
aI202382
aI71312
aI71314
aI202387
aI169621
aI206416
aI136857
aI202394
aI202395
aI104092
aI5792
aI5795
aI5797
aI136870
aI202408
aI202416
aI169650
aI202420
aI202421
aI202422
aI181193
aI202425
aI202427
aI202428
aI197578
aI202430
aI110197
aI202434
aI71364
aI5829
aI202438
aI5832
aI5836
aI202453
aI28281
aI202457
aI148431
aI136926
aI202471
aI115666
aI202478
aI202479
aI169718
aI202490
aI202496
aI202500
aI202507
aI202508
aI202509
aI136977
aI202520
aI202521
aI136986
aI202523
aI202529
aI192134
aI202534
aI202535
aI202538
aI202539
aI137006
aI202543
aI202548
aI148446
aI202550
aI202551
aI202554
aI202566
aI202567
aI202568
aI202570
aI202571
aI202575
aI137040
aI202580
aI202584
aI202590
aI71521
aI71524
aI202598
aI202600
aI137066
aI202607
aI71537
aI202610
aI71539
aI202612
aI202616
aI71547
aI202622
aI202623
aI202624
aI202637
aI202638
aI202640
aI137105
aI202643
aI202644
aI202648
aI6043
aI202653
aI202654
aI202656
aI202657
aI202663
aI202666
aI197618
aI202679
aI202681
aI202682
aI202684
aI202689
aI202691
aI202695
aI71625
aI202701
aI202702
aI202705
aI137173
aI202710
aI202712
aI126628
aI202714
aI202716
aI202720
aI202725
aI202728
aI202734
aI202737
aI202738
aI204
aI202748
aI6141
aI137214
aI71679
aI202752
aI6146
aI202766
aI202770
aI202774
aI202778
aI202779
aI202782
aI202783
aI202784
aI202786
aI202787
aI202789
aI202791
aI202795
aI202797
aI202798
aI202801
aI6199
aI202808
aI202810
aI202814
aI202816
aI202820
aI202821
aI202822
aI202825
aI192183
aI202830
aI202834
aI137299
aI202845
aI202847
aI202848
aI202851
aI6244
aI137324
aI202861
aI202863
aI71796
aI202871
aI202875
aI202882
aI71814
aI203116
aI202890
aI197655
aI71823
aI202902
aI192196
aI6298
aI202907
aI202909
aI202911
aI202912
aI202923
aI202924
aI202927
aI202928
aI202932
aI202938
aI137404
aI202941
aI202942
aI202946
aI137411
aI137415
aI202954
aI202957
aI202958
aI202961
aI202962
aI6355
aI202965
aI202966
aI203129
aI202968
aI202971
aI71900
aI202978
aI137443
aI137444
aI202982
aI186748
aI6378
aI202988
aI202989
aI71919
aI202996
aI202999
aI203000
aI203004
aI1066
aI203006
aI203007
aI203010
aI203011
aI203013
aI203014
aI6412
aI203021
aI137487
aI203033
aI203044
aI203046
aI203050
aI203054
aI71985
aI203061
aI203062
aI203068
aI203069
aI203073
aI203074
aI159457
aI72008
aI203081
aI203083
aI6476
aI61154
aI72014
aI6479
aI203088
aI137554
aI137556
aI203093
aI203096
aI203098
aI203104
aI203105
aI137571
aI203109
aI203153
aI203113
aI203115
aI72044
aI203121
aI203155
aI203124
aI203126
aI137593
aI203131
aI203133
aI203134
aI203136
aI203140
aI203142
aI203144
aI192236
aI203151
aI137617
aI6547
aI126702
aI203158
aI203159
aI203161
aI203164
aI203166
aI203167
aI203169
aI203171
aI197702
aI203185
aI203191
aI203192
aI72121
aI203194
aI72125
aI72127
aI137665
aI66635
aI203205
aI203207
aI72136
aI203215
aI203216
aI137684
aI203234
aI203238
aI6633
aI72171
aI203244
aI203246
aI6640
aI203251
aI203262
aI203270
aI6665
aI203274
aI203275
aI203276
aI72219
aI203293
aI203294
aI203298
aI203299
aI203301
aI6694
aI203305
aI203306
aI203309
aI137774
aI203312
aI203313
aI203319
aI203321
aI203324
aI203325
aI203326
aI203327
aI6720
aI203332
aI203336
aI203338
aI203340
aI197731
aI203351
aI203355
aI6748
aI203358
aI203361
aI203366
aI203374
aI203378
aI72307
aI203382
aI203385
aI203386
aI203199
aI203390
aI203391
aI203393
aI203398
aI6793
aI203404
aI137871
aI203203
aI203414
aI203418
aI203422
aI72352
aI203425
aI203433
aI137898
aI6827
aI203436
aI203437
aI203439
aI39601
aI39611
aI203453
aI119161
aI203457
aI137923
aI137926
aI203463
aI203465
aI203467
aI39630
aI203471
aI203472
aI203473
aI203475
aI203480
aI192292
aI203483
aI39644
aI203490
aI105187
aI203494
aI39663
aI203504
aI6897
aI203508
aI203510
aI203512
aI203516
aI137987
aI203526
aI203527
aI203532
aI203534
aI105234
aI72477
aI39710
aI203553
aI203556
aI170792
aI105258
aI170799
aI203568
aI203576
aI203581
aI203590
aI203591
aI203596
aI170831
aI203601
aI105298
aI170835
aI203604
aI39770
aI175930
aI203615
aI203616
aI203617
aI203618
aI203619
aI203621
aI203622
aI66705
aI7018
aI203629
aI7025
aI203637
aI203241
aI170873
aI39803
aI203646
aI203649
aI203650
aI203657
aI203661
aI203668
aI203670
aI138135
aI105368
aI203677
aI7071
aI203682
aI203685
aI203688
aI203693
aI132253
aI203697
aI110409
aI203704
aI138169
aI138172
aI126794
aI203712
aI203713
aI170946
aI203718
aI138186
aI203726
aI170965
aI203734
aI203736
aI203737
aI72667
aI203741
aI203742
aI203743
aI203745
aI105444
aI138214
aI203757
aI138222
aI138223
aI72690
aI170996
aI203765
aI203767
aI138232
aI138234
aI203772
aI203774
aI203776
aI7172
aI110422
aI203782
aI138247
aI203792
aI121347
aI203796
aI5695
aI7194
aI12923
aI171038
aI39968
aI72739
aI171044
aI203813
aI105511
aI203818
aI72747
aI203820
aI98516
aI203829
aI203273
aI7224
aI105532
aI203838
aI203841
aI72770
aI203853
aI72782
aI203857
aI7250
aI171092
aI203861
aI7258
aI203867
aI203869
aI203877
aI105578
aI203885
aI203887
aI7287
aI203897
aI7290
aI203902
aI203905
aI203907
aI171140
aI203917
aI138382
aI203920
aI203929
aI203934
aI203939
aI171173
aI203944
aI203947
aI7340
aI138414
aI138422
aI203960
aI203961
aI203965
aI203973
aI40138
aI203980
aI203982
aI203987
aI171222
aI171223
aI203993
aI203994
aI203998
aI204001
aI171235
aI204006
aI204007
aI105708
aI204013
aI204021
aI204022
aI204025
aI204026
aI204029
aI171264
aI72962
aI204035
aI204037
aI28545
aI204041
aI171274
aI204045
aI138511
aI40209
aI204051
aI40215
aI105752
aI72986
aI171291
aI204060
aI204063
aI72996
aI138534
aI204076
aI105773
aI204078
aI171311
aI204081
aI40242
aI204085
aI204087
aI204088
aI138554
aI40252
aI7486
aI204100
aI204101
aI204102
aI204104
aI204105
aI204107
aI204108
aI204109
aI204110
aI204111
aI204114
aI204121
aI138587
aI204126
aI192400
aI40294
aI105831
aI204136
aI105833
aI204140
aI40302
aI204145
aI204148
aI204149
aI138616
aI204160
aI204162
aI7555
aI204164
aI204165
aI204166
aI204167
aI204168
aI171402
aI105867
aI138638
aI204176
aI204181
aI204183
aI73117
aI138654
aI197872
aI73122
aI204195
aI204198
aI73129
aI204204
aI204210
aI204211
aI204215
aI204221
aI138686
aI40383
aI7616
aI204225
aI204227
aI204231
aI204232
aI204233
aI204234
aI204243
aI204247
aI138712
aI204250
aI204254
aI204259
aI204260
aI171493
aI204262
aI204264
aI204266
aI73195
aI171507
aI40440
aI204281
aI40443
aI204284
aI105981
aI40447
aI138752
aI204289
aI204292
aI138757
aI106001
aI73234
aI204309
aI138776
aI204314
aI171548
aI204319
aI138788
aI204327
aI204329
aI106027
aI204340
aI7733
aI138810
aI138811
aI7741
aI171583
aI40513
aI171586
aI165131
aI186977
aI204362
aI204363
aI73292
aI204368
aI204370
aI138842
aI40547
aI204389
aI204391
aI204394
aI204396
aI204399
aI204400
aI192446
aI204406
aI204407
aI204408
aI204411
aI204415
aI40579
aI138886
aI204428
aI204429
aI204433
aI7828
aI204439
aI7835
aI40604
aI204449
aI204456
aI204465
aI203379
aI40634
aI73403
aI106173
aI138949
aI204487
aI204488
aI204490
aI204491
aI197922
aI40654
aI106192
aI204498
aI40661
aI204508
aI204509
aI204511
aI203387
aI204519
aI40680
aI204523
aI204524
aI204526
aI73456
aI73458
aI204531
aI204535
aI139001
aI204538
aI204549
aI204552
aI204553
aI204563
aI204570
aI201033
aI204575
aI204577
aI204578
aI40739
aI7972
aI204582
aI1329
aI40744
aI204585
aI204586
aI204587
aI204594
aI171827
aI73527
aI40760
aI204602
aI73531
aI187018
aI204607
aI204608
aI204610
aI204614
aI204619
aI8013
aI204622
aI204624
aI204631
aI204634
aI204636
aI110565
aI204640
aI204643
aI139109
aI204647
aI204649
aI204652
aI204653
aI171888
aI139121
aI40818
aI203411
aI204662
aI204663
aI204669
aI204670
aI204674
aI8076
aI8077
aI204686
aI204690
aI171923
aI204692
aI204694
aI204698
aI171931
aI204700
aI73631
aI8097
aI171940
aI204709
aI106412
aI8109
aI40879
aI204725
aI8123
aI204732
aI204734
aI171969
aI204738
aI171972
aI204741
aI171976
aI8137
aI204746
aI204750
aI40911
aI106454
aI204762
aI204763
aI204764
aI192506
aI4636
aI73695
aI204768
aI204769
aI204771
aI106470
aI204775
aI204776
aI195147
aI204782
aI204783
aI204784
aI139252
aI204789
aI204790
aI204791
aI139256
aI172025
aI204795
aI204796
aI204797
aI205405
aI204799
aI73728
aI40967
aI204814
aI106511
aI204817
aI204818
aI204819
aI204823
aI204824
aI139291
aI204831
aI8226
aI73764
aI139301
aI73766
aI106537
aI41003
aI204844
aI121522
aI204846
aI172079
aI204848
aI204849
aI132446
aI8246
aI204856
aI204858
aI204859
aI139325
aI204865
aI139330
aI172099
aI41028
aI204870
aI8267
aI139341
aI204878
aI139345
aI204882
aI204884
aI204885
aI172118
aI204893
aI204896
aI204897
aI139363
aI204904
aI204905
aI204906
aI106604
aI204909
aI204911
aI165224
aI172146
aI204915
aI204916
aI139386
aI204923
aI204925
aI204926
aI204930
aI106631
aI204936
aI8330
aI204943
aI8336
aI204946
aI172181
aI196681
aI204952
aI204954
aI204958
aI204963
aI204973
aI106118
aI204977
aI41138
aI204980
aI204981
aI204983
aI139449
aI204988
aI204990
aI99701
aI204992
aI159776
aI204995
aI8388
aI139461
aI139463
aI172234
aI41164
aI41165
aI8401
aI8402
aI106709
aI205015
aI172248
aI205019
aI106716
aI73950
aI205027
aI192551
aI139501
aI172270
aI205040
aI205043
aI205047
aI172282
aI172285
aI172288
aI205057
aI8451
aI41220
aI205063
aI205067
aI205070
aI205072
aI41233
aI205076
aI205078
aI41240
aI106780
aI139551
aI205091
aI205094
aI205095
aI41257
aI74029
aI172335
aI205105
aI139571
aI205114
aI8507
aI205117
aI74046
aI139585
aI8515
aI143414
aI205126
aI106824
aI41289
aI205130
aI205131
aI106828
aI205136
aI139602
aI205142
aI172375
aI205144
aI205145
aI172378
aI41307
aI205150
aI139618
aI139619
aI172392
aI41322
aI139631
aI205168
aI205173
aI205178
aI205179
aI205181
aI205183
aI172419
aI205192
aI205195
aI139663
aI205201
aI205202
aI192580
aI205210
aI106908
aI8605
aI205218
aI205220
aI121585
aI172458
aI41389
aI172462
aI205231
aI8627
aI165278
aI205238
aI205240
aI205241
aI41404
aI205245
aI205248
aI205249
aI139718
aI172487
aI205257
aI205258
aI74190
aI205268
aI172501
aI205271
aI205273
aI41438
aI8672
aI205286
aI205291
aI94290
aI205294
aI205295
aI205297
aI205300
aI205301
aI8694
aI41463
aI41467
aI205310
aI172546
aI205316
aI205317
aI172553
aI205327
aI205333
aI205338
aI205342
aI205345
aI74275
aI205348
aI41509
aI205351
aI205352
aI143452
aI205355
aI205360
aI205361
aI205366
aI205367
aI205368
aI205370
aI205372
aI205378
aI198071
aI107085
aI107087
aI74320
aI205394
aI74324
aI205400
aI139869
aI205407
aI205411
aI205413
aI172647
aI205416
aI205422
aI205424
aI205428
aI205429
aI205433
aI205437
aI139903
aI205448
aI205450
aI205451
aI205452
aI205454
aI74384
aI139922
aI205459
aI205464
aI172697
aI205466
aI205468
aI205477
aI172712
aI205483
aI205485
aI203549
aI74418
aI8884
aI172728
aI74427
aI172732
aI107199
aI205508
aI205512
aI205515
aI107213
aI205521
aI172758
aI198095
aI139996
aI8932
aI205543
aI205544
aI172777
aI205547
aI205548
aI205549
aI205552
aI205559
aI205565
aI205569
aI74500
aI143489
aI205577
aI172814
aI205583
aI205584
aI74515
aI41749
aI41753
aI205594
aI205596
aI205598
aI172834
aI74533
aI205606
aI205607
aI140072
aI140074
aI205618
aI205619
aI205620
aI140086
aI172858
aI205628
aI28810
aI205633
aI205637
aI205638
aI172873
aI107339
aI9047
aI205658
aI172892
aI205661
aI205663
aI205664
aI205666
aI205677
aI205678
aI205681
aI205684
aI41847
aI205690
aI140162
aI205700
aI41867
aI205709
aI74640
aI205713
aI205719
aI205721
aI205725
aI205727
aI41890
aI205731
aI172964
aI70136
aI198129
aI205736
aI41898
aI205743
aI74672
aI41910
aI205752
aI181748
aI107450
aI41916
aI205759
aI107457
aI205762
aI205768
aI205769
aI9162
aI173005
aI205779
aI198137
aI205785
aI205787
aI205788
aI2488
aI203602
aI74734
aI140272
aI74737
aI205810
aI138067
aI41979
aI127146
aI74752
aI205826
aI205832
aI205833
aI74762
aI140300
aI205839
aI205841
aI140307
aI42004
aI205845
aI205846
aI205847
aI140313
aI173082
aI187982
aI107552
aI205857
aI205858
aI205863
aI205865
aI205869
aI205872
aI205873
aI140340
aI205877
aI9274
aI205886
aI42047
aI205888
aI140353
aI205892
aI205895
aI173128
aI67084
aI205899
aI140365
aI205902
aI205905
aI205906
aI205908
aI205909
aI42070
aI205914
aI165391
aI205916
aI205917
aI205922
aI205923
aI173158
aI205930
aI203623
aI9330
aI176318
aI74871
aI205944
aI205947
aI205948
aI205956
aI9355
aI138093
aI9363
aI205972
aI205973
aI205975
aI205978
aI107676
aI202171
aI205983
aI205984
aI205985
aI205986
aI205988
aI127174
aI173222
aI203633
aI9384
aI205995
aI205999
aI206000
aI9394
aI206004
aI42170
aI206013
aI107710
aI74943
aI1569
aI107721
aI203639
aI206028
aI74957
aI206032
aI107729
aI206035
aI140501
aI42198
aI26501
aI206041
aI168348
aI206043
aI206044
aI9438
aI173280
aI206049
aI206050
aI203643
aI206052
aI206053
aI206054
aI140519
aI206056
aI173291
aI206060
aI173294
aI206066
aI206068
aI206072
aI206078
aI206080
aI198187
aI107780
aI75014
aI206089
aI206092
aI75022
aI9495
aI206106
aI173339
aI206108
aI140574
aI206111
aI206112
aI206114
aI206121
aI140591
aI198195
aI206136
aI9529
aI140604
aI173373
aI206142
aI140608
aI206145
aI206151
aI173384
aI206155
aI206156
aI107859
aI206166
aI206170
aI206172
aI206173
aI206175
aI206181
aI173417
aI206188
aI140662
aI206200
aI206206
aI198209
aI206216
aI206222
aI206224
aI203672
aI206226
aI206229
aI206236
aI206242
aI206244
aI75173
aI206251
aI206255
aI206260
aI88990
aI127220
aI198218
aI42430
aI206271
aI206273
aI42434
aI198219
aI173508
aI206277
aI140748
aI206286
aI206289
aI173523
aI173524
aI206293
aI206294
aI206297
aI94458
aI206303
aI206304
aI206308
aI42477
aI206318
aI173553
aI108018
aI206326
aI206327
aI206332
aI42496
aI9731
aI42500
aI140806
aI173577
aI206347
aI206349
aI206351
aI206353
aI206356
aI206358
aI206359
aI187311
aI206366
aI206371
aI206373
aI140838
aI108074
aI206380
aI206381
aI173623
aI173625
aI206397
aI140862
aI206401
aI206404
aI206406
aI173639
aI206409
aI9808
aI42577
aI140882
aI206421
aI206422
aI206423
aI206425
aI206428
aI75357
aI108126
aI206431
aI140896
aI206433
aI206437
aI206444
aI206447
aI140912
aI173681
aI42610
aI108147
aI108150
aI206455
aI42617
aI206458
aI206460
aI9853
aI206462
aI206464
aI140930
aI206468
aI206469
aI206470
aI108167
aI140937
aI9866
aI203714
aI108176
aI206482
aI206483
aI206487
aI206490
aI173728
aI206498
aI206500
aI140965
aI173737
aI206508
aI37428
aI27608
aI173758
aI206529
aI140995
aI206534
aI206536
aI206537
aI173770
aI206540
aI173773
aI206543
aI61434
aI206546
aI206555
aI206556
aI206557
aI206559
aI206568
aI206570
aI9964
aI206573
aI206574
aI206575
aI206577
aI206580
aI42742
aI173815
aI206588
aI203733
aI48342
aI206605
aI141072
aI108306
aI141076
aI206614
aI206616
aI206617
aI206618
aI206620
aI173853
aI206625
aI42786
aI173861
aI28978
aI206639
aI206643
aI206644
aI206645
aI206649
aI206650
aI206658
aI206659
aI206663
aI206664
aI206668
aI108366
aI206671
aI206672
aI206675
aI206676
aI173910
aI173915
aI206689
aI206695
aI206704
aI206709
aI206712
aI173945
aI206717
aI206718
aI108416
aI206727
aI206728
aI206730
aI206734
aI173969
aI42898
aI42901
aI141210
aI206749
aI206750
aI206751
aI206756
aI206759
aI206762
aI206763
aI206764
aI206766
aI206771
aI206776
aI10172
aI206781
aI206782
aI174021
aI149153
aI42952
aI206793
aI206794
aI10187
aI206797
aI206798
aI141263
aI203768
aI206802
aI206803
aI206806
aI42968
aI174042
aI206811
aI171002
aI174048
aI141288
aI108522
aI206828
aI141297
aI206834
aI206837
aI174070
aI141304
aI187391
aI206846
aI174080
aI206851
aI174084
aI174088
aI206858
aI141327
aI206864
aI206865
aI206867
aI174100
aI174101
aI206870
aI10275
aI108580
aI10278
aI206888
aI206890
aI206892
aI174125
aI174128
aI206897
aI206903
aI141369
aI206906
aI174142
aI10304
aI206913
aI206914
aI206916
aI206917
aI43080
aI43084
aI206925
aI206928
aI206929
aI206933
aI206934
aI206935
aI206936
aI206938
aI206943
aI206946
aI206947
aI108644
aI206953
aI108651
aI171027
aI132798
aI174198
aI174199
aI206969
aI108669
aI206975
aI141448
aI206986
aI141451
aI206990
aI10389
aI206998
aI207003
aI207006
aI207007
aI207015
aI171036
aI207018
aI141483
aI141484
aI207021
aI10416
aI207027
aI207028
aI160116
aI207034
aI207036
aI207037
aI203808
aI198347
aI108743
aI174283
aI207053
aI207056
aI207058
aI203811
aI176505
aI108760
aI207065
aI207066
aI207070
aI166200
aI192892
aI10479
aI207090
aI207092
aI192894
aI109462
aI207096
aI108795
aI207100
aI207103
aI207112
aI43274
aI207115
aI141580
aI207118
aI149208
aI174356
aI207126
aI174360
aI10524
aI174368
aI43311
aI174399
aI141640
aI108874
aI108877
aI203832
aI141654
aI174439
aI108912
aI10619
aI10636
aI10667
aI10675
aI108993
aI141769
aI174539
aI109004
aI111010
aI174543
aI174567
aI174574
aI10747
aI174589
aI109060
aI109066
aI141837
aI141849
aI171098
aI141856
aI109091
aI34566
aI109101
aI141881
aI182026
aI94645
aI10829
aI141905
aI43622
aI43625
aI141940
aI76407
aI141945
aI76417
aI10884
aI109196
aI174733
aI78276
aI141980
aI141994
aI174771
aI109236
aI142015
aI109251
aI10960
aI93111
aI106205
aI142062
aI11004
aI174846
aI43775
aI142091
aI109328
aI174870
aI11032
aI76582
aI11056
aI174897
aI174898
aI160222
aI109372
aI76605
aI43849
aI142177
aI142186
aI174967
aI142200
aI109437
aI43902
aI174987
aI76684
aI174992
aI76692
aI43926
aI142240
aI175017
aI43947
aI175032
aI175036
aI76733
aI11205
aI142281
aI142284
aI175058
aI76762
aI142317
aI142322
aI127487
aI175106
aI11269
aI11270
aI175118
aI189141
aI175123
aI109588
aI175125
aI76825
aI76833
aI175139
aI44082
aI142398
aI76863
aI76865
aI76873
aI76874
aI11342
aI109647
aI12380
aI11346
aI128040
aI109658
aI175204
aI11375
aI76916
aI109699
aI142495
aI142496
aI78363
aI109737
aI44210
aI76979
aI76981
aI175291
aI175299
aI142535
aI109776
aI11476
aI142553
aI198968
aI142563
aI109798
aI44269
aI109812
aI11511
aI175355
aI175357
aI175363
aI203990
aI44298
aI142604
aI44304
aI175381
aI44334
aI142640
aI175409
aI44339
aI142655
aI109893
aI40161
aI44368
aI44378
aI142683
aI109916
aI77149
aI160316
aI171239
aI142700
aI11632
aI142710
aI175482
aI109947
aI187626
aI11646
aI109953
aI208262
aI77202
aI11668
aI11669
aI11678
aI77216
aI142756
aI77222
aI142777
aI11708
aI193101
aI77273
aI142821
aI77289
aI142829
aI142848
aI142851
aI77318
aI175623
aI110095
aI175633
aI44563
aI11799
aI11805
aI110121
aI204039
aI175663
aI110128
aI11830
aI175672
aI175673
aI142914
aI175683
aI175687
aI11849
aI44618
aI11852
aI175702
aI11867
aI77407
aI11878
aI77416
aI182204
aI11887
aI142965
aI44664
aI175742
aI175745
aI77446
aI204055
aI110221
aI175758
aI175760
aI7448
aI142994
aI175767
aI175769
aI204058
aI44702
aI204059
aI44719
aI11958
aI110265
aI78454
aI11974
aI110287
aI11984
aI127609
aI44760
aI44771
aI175849
aI175856
aI198611
aI143094
aI105149
aI23853
aI143140
aI138546
aI143150
aI110391
aI110394
aI77630
aI12100
aI143177
aI143178
aI34786
aI143190
aI44907
aI77678
aI77681
aI12147
aI198639
aI176032
aI176045
aI176050
aI110524
aI143297
aI2040
aI138575
aI12258
aI176100
aI176101
aI176125
aI162659
aI45065
aI143401
aI176178
aI176182
aI143419
aI77888
aI110657
aI110659
aI12359
aI12360
aI45129
aI176202
aI176204
aI110675
aI12372
aI143446
aI56676
aI193542
aI176220
aI77917
aI143458
aI204134
aI176238
aI143472
aI143473
aI202272
aI110719
aI176257
aI176266
aI12431
aI193219
aI204142
aI176279
aI45212
aI110749
aI12450
aI198683
aI176292
aI176297
aI77998
aI78003
aI78004
aI78009
aI78538
aI143550
aI176327
aI45277
aI176352
aI78063
aI143602
aI143611
aI12540
aI45315
aI176391
aI176397
aI143642
aI176423
aI176425
aI78126
aI110896
aI78134
aI12603
aI45374
aI2101
aI143683
aI110918
aI34872
aI204174
aI45409
aI143730
aI78195
aI143737
aI176507
aI110978
aI45448
aI127724
aI110986
aI198723
aI78230
aI198724
aI111009
aI45474
aI202282
aI155036
aI143790
aI111024
aI187806
aI133193
aI78268
aI143812
aI160502
aI176584
aI78281
aI209354
aI204194
aI111059
aI176606
aI143839
aI78309
aI176614
aI198737
aI78313
aI111092
aI204201
aI78329
aI143881
aI78349
aI12814
aI143899
aI78366
aI12833
aI198747
aI143917
aI45618
aI143925
aI209466
aI78398
aI12865
aI111173
aI78604
aI12883
aI209494
aI111204
aI143973
aI176743
aI176751
aI78448
aI111222
aI155071
aI176765
aI111232
aI176778
aI187843
aI144021
aI111259
aI78492
aI45729
aI111271
aI176818
aI45752
aI130277
aI95009
aI111306
aI78550
aI111319
aI144089
aI144099
aI45797
aI176873
aI78575
aI78577
aI13047
aI13050
aI176897
aI45826
aI144139
aI176908
aI176924
aI13095
aI144169
aI45876
aI144186
aI45889
aI103003
aI144196
aI111429
aI78666
aI45904
aI144209
aI187875
aI144219
aI111452
aI187878
aI193340
aI45941
aI111479
aI133270
aI177039
aI45971
aI144278
aI177051
aI111518
aI100507
aI204275
aI201209
aI177099
aI111567
aI46034
aI13267
aI177112
aI95055
aI46058
aI197937
aI89597
aI177142
aI46075
aI56832
aI13317
aI78857
aI46092
aI111629
aI78862
aI78863
aI46097
aI111637
aI177195
aI46124
aI177197
aI46133
aI78902
aI144441
aI46139
aI177219
aI78918
aI177228
aI46170
aI144229
aI13409
aI144483
aI177257
aI13419
aI204306
aI78961
aI46194
aI78964
aI13429
aI111746
aI111750
aI198850
aI149700
aI111777
aI204316
aI187933
aI144580
aI13516
aI92105
aI144600
aI144604
aI13538
aI111844
aI177382
aI177400
aI79097
aI13562
aI177409
aI144643
aI111876
aI79114
aI177424
aI111889
aI177436
aI198875
aI144685
aI144688
aI144704
aI13634
aI111942
aI79175
aI177480
aI177488
aI177494
aI144730
aI46427
aI144733
aI46437
aI204349
aI13680
aI144753
aI46452
aI144764
aI166123
aI13702
aI144776
aI177547
aI144781
aI46478
aI112016
aI177579
aI187976
aI144818
aI171594
aI198902
aI177610
aI177613
aI112079
aI144853
aI112088
aI144862
aI13813
aI112120
aI13818
aI79363
aI193452
aI112138
aI112141
aI177679
aI79385
aI79388
aI79390
aI187996
aI144945
aI177726
aI112193
aI177731
aI177735
aI46666
aI204387
aI13908
aI112219
aI112224
aI46691
aI46697
aI145002
aI188007
aI13935
aI46708
aI145020
aI112259
aI46749
aI177822
aI13985
aI79532
aI79541
aI188020
aI89717
aI177858
aI177865
aI177869
aI177870
aI112336
aI145112
aI193487
aI145121
aI79590
aI145128
aI14076
aI145155
aI177925
aI177926
aI79629
aI177937
aI14101
aI14104
aI188038
aI46901
aI79671
aI198964
aI177981
aI177983
aI14154
aI112460
aI178001
aI79698
aI178004
aI178014
aI169597
aI198971
aI145255
aI178025
aI178026
aI14187
aI14188
aI100669
aI79731
aI79732
aI178037
aI14202
aI67905
aI178060
aI178071
aI112537
aI203424
aI178078
aI79777
aI145318
aI190267
aI112556
aI79790
aI145331
aI112566
aI145335
aI14270
aI14271
aI178112
aI112579
aI178119
aI14283
aI210907
aI79839
aI14306
aI133457
aI131412
aI178156
aI178157
aI112626
aI79865
aI112640
aI178178
aI14346
aI62466
aI145423
aI178192
aI112660
aI112674
aI112677
aI178215
aI112685
aI145456
aI204467
aI145472
aI29707
aI130324
aI145482
aI14413
aI112722
aI145491
aI145494
aI112728
aI199012
aI79970
aI178275
aI145508
aI79988
aI145525
aI145543
aI178320
aI182638
aI80025
aI80028
aI178339
aI145572
aI178353
aI178370
aI179429
aI112836
aI178379
aI204493
aI138958
aI145625
aI145631
aI14563
aI145649
aI112892
aI112898
aI160812
aI145691
aI145695
aI145711
aI80183
aI14653
aI112962
aI178512
aI112981
aI80217
aI178531
aI145769
aI178544
aI178545
aI178547
aI145786
aI178557
aI166295
aI145816
aI188143
aI178588
aI80294
aI178600
aI113090
aI145865
aI145868
aI178641
aI211410
aI14803
aI80344
aI113113
aI145885
aI145887
aI199078
aI178663
aI145908
aI145911
aI178682
aI178691
aI80398
aI113175
aI145959
aI80429
aI36979
aI113227
aI100792
aI113235
aI178782
aI178794
aI178799
aI80499
aI178807
aI80505
aI178812
aI178816
aI178818
aI199107
aI178840
aI146079
aI178864
aI178874
aI178875
aI146123
aI199117
aI204580
aI139047
aI178924
aI178926
aI80624
aI80635
aI188202
aI80638
aI113412
aI146182
aI193665
aI197998
aI113435
aI178976
aI178984
aI178988
aI113459
aI80699
aI179004
aI146240
aI179016
aI179018
aI204599
aI113491
aI113495
aI80729
aI202365
aI146273
aI80738
aI199142
aI80743
aI179051
aI80756
aI113525
aI113528
aI113531
aI47997
aI48001
aI113544
aI179083
aI146327
aI179103
aI188230
aI35314
aI80826
aI113597
aI73547
aI146374
aI179145
aI179157
aI202369
aI179166
aI113632
aI179171
aI146404
aI48101
aI179177
aI146412
aI146414
aI113651
aI146429
aI179203
aI179204
aI80917
aI179222
aI80921
aI80922
aI80945
aI113714
aI160947
aI179263
aI113771
aI179312
aI113777
aI113780
aI48257
aI48259
aI179342
aI179343
aI48279
aI146584
aI146586
aI179359
aI81056
aI179363
aI179366
aI146606
aI179386
aI146622
aI179393
aI146630
aI146638
aI146642
aI113878
aI57209
aI48357
aI113900
aI48365
aI139133
aI179448
aI179462
aI199212
aI48394
aI193751
aI146700
aI81170
aI81175
aI179490
aI193755
aI113959
aI179511
aI81214
aI179520
aI204684
aI146772
aI179544
aI114025
aI8086
aI48519
aI146833
aI81308
aI81311
aI73627
aI146853
aI204703
aI179647
aI48591
aI146899
aI144633
aI81376
aI81392
aI48628
aI48629
aI48631
aI146944
aI48646
aI146958
aI204717
aI48659
aI81432
aI146969
aI133722
aI146980
aI81449
aI114218
aI81463
aI114235
aI81477
aI159836
aI179805
aI204731
aI15973
aI193809
aI48745
aI81525
aI179833
aI15997
aI204737
aI81547
aI24515
aI202393
aI114345
aI16049
aI16052
aI114372
aI48845
aI179924
aI204751
aI48867
aI179949
aI114422
aI188211
aI16140
aI114446
aI114460
aI147235
aI48940
aI95538
aI48953
aI193845
aI81743
aI48977
aI16210
aI147286
aI180058
aI204774
aI49000
aI114537
aI147315
aI147321
aI49019
aI180133
aI180151
aI180152
aI172020
aI49090
aI90102
aI180168
aI81865
aI166562
aI147433
aI180210
aI81913
aI81941
aI49180
aI180253
aI49185
aI204807
aI81971
aI81974
aI81980
aI147528
aI180315
aI182971
aI180328
aI16491
aI82028
aI51902
aI49299
aI49303
aI114858
aI180397
aI180398
aI147633
aI82100
aI82102
aI180411
aI180413
aI161141
aI16579
aI82122
aI180431
aI49364
aI82133
aI82135
aI147675
aI16609
aI147695
aI16626
aI49398
aI16635
aI49404
aI30080
aI114956
aI57390
aI180502
aI16663
aI180509
aI114980
aI144774
aI165316
aI49453
aI16693
aI204853
aI115012
aI16709
aI180552
aI161167
aI115036
aI49507
aI183015
aI147828
aI115061
aI57408
aI180610
aI82313
aI82314
aI155499
aI73794
aI82336
aI82338
aI115107
aI128412
aI82353
aI180658
aI180664
aI115141
aI147913
aI82389
aI16859
aI82404
aI115173
aI180716
aI180717
aI49646
aI49649
aI180722
aI180727
aI115196
aI133888
aI180743
aI180744
aI147983
aI16912
aI82466
aI180772
aI16939
aI24669
aI180790
aI115263
aI180802
aI180804
aI180809
aI49738
aI166669
aI204899
aI180820
aI150286
aI115302
aI148077
aI64943
aI49783
aI148089
aI108789
aI17023
aI17025
aI82576
aI180889
aI180900
aI115369
aI148138
aI115373
aI17072
aI82610
aI148149
aI148185
aI204922
aI180963
aI180967
aI180983
aI180984
aI82685
aI148222
aI115459
aI17171
aI181015
aI17192
aI115497
aI204935
aI181041
aI115506
aI181045
aI181051
aI181053
aI148287
aI17230
aI181079
aI148319
aI204944
aI148350
aI148351
aI82816
aI204950
aI30036
aI181134
aI155800
aI82834
aI148378
aI181148
aI148386
aI181158
aI148394
aI82861
aI181167
aI148402
aI148406
aI148412
aI199163
aI82884
aI82889
aI82893
aI17359
aI82897
aI82898
aI82899
aI181214
aI181239
aI181242
aI17414
aI148503
aI181273
aI148509
aI96600
aI82977
aI148514
aI82986
aI115778
aI59503
aI177677
aI17490
aI181335
aI148572
aI155836
aI83065
aI115835
aI181373
aI115844
aI181388
aI24771
aI13849
aI181404
aI115871
aI17577
aI148650
aI52082
aI83134
aI148671
aI101238
aI181459
aI17625
aI181468
aI181470
aI181478
aI17639
aI83177
aI83180
aI83190
aI112169
aI181496
aI148743
aI17672
aI123095
aI181517
aI115982
aI115985
aI148761
aI83229
aI148774
aI17705
aI95794
aI83252
aI181565
aI181569
aI116046
aI116047
aI181585
aI17749
aI148828
aI17760
aI148838
aI181617
aI148856
aI181625
aI181636
aI116107
aI116109
aI148882
aI161347
aI181655
aI148899
aI116146
aI181687
aI83413
aI116187
aI90362
aI116195
aI116205
aI205053
aI161363
aI17908
aI181758
aI181763
aI17935
aI205059
aI116244
aI17941
aI149030
aI83502
aI149043
aI83526
aI181845
aI116313
aI83548
aI181854
aI155920
aI149092
aI149093
aI205073
aI149096
aI181868
aI206824
aI149119
aI83585
aI18056
aI83597
aI181903
aI181905
aI155929
aI181912
aI181913
aI181915
aI181921
aI181922
aI149157
aI181929
aI181933
aI149186
aI149206
aI116440
aI181981
aI116453
aI83694
aI182000
aI182003
aI116480
aI116490
aI18192
aI149267
aI149268
aI166874
aI18215
aI116522
aI116532
aI182069
aI182078
aI182080
aI68576
aI199193
aI116549
aI83786
aI18254
aI116569
aI194191
aI18268
aI149347
aI205118
aI116603
aI182141
aI205121
aI182174
aI205125
aI190467
aI172360
aI112286
aI172361
aI182200
aI83900
aI83903
aI60624
aI128677
aI83945
aI18417
aI182258
aI182259
aI149493
aI128682
aI116737
aI149506
aI182280
aI182282
aI18459
aI182302
aI149536
aI182312
aI149550
aI182328
aI113818
aI161461
aI149568
aI182353
aI41315
aI116822
aI149591
aI18528
aI18531
aI18535
aI182377
aI18539
aI116849
aI84084
aI95936
aI182410
aI182412
aI205167
aI149668
aI161478
aI182445
aI182458
aI116928
aI84164
aI182481
aI84181
aI116950
aI182488
aI182490
aI182498
aI182515
aI149749
aI149760
aI117002
aI182543
aI177880
aI205187
aI117012
aI182552
aI84252
aI84253
aI84254
aI189107
aI182564
aI182572
aI182587
aI149821
aI182590
aI182594
aI117069
aI84314
aI205199
aI182627
aI149860
aI117093
aI84334
aI182650
aI182660
aI182666
aI84364
aI84369
aI168661
aI205209
aI182691
aI117159
aI117168
aI149960
aI149964
aI156066
aI117199
aI182739
aI182749
aI182753
aI182760
aI205223
aI150007
aI182782
aI182790
aI150025
aI150027
aI150062
aI205235
aI117323
aI150100
aI182882
aI150140
aI117380
aI150149
aI51847
aI150636
aI150157
aI150158
aI182937
aI150173
aI150175
aI205254
aI150182
aI205255
aI150191
aI194335
aI168671
aI150207
aI183001
aI183004
aI51943
aI51955
aI172500
aI183038
aI51967
aI150273
aI183043
aI117512
aI117515
aI117518
aI52004
aI150335
aI150336
aI183105
aI117573
aI183112
aI52056
aI117618
aI150400
aI117636
aI205293
aI183193
aI183201
aI183208
aI52156
aI183251
aI117731
aI183268
aI150502
aI117741
aI183283
aI150527
aI183317
aI129402
aI52267
aI30557
aI183344
aI52275
aI117812
aI183350
aI194399
aI183356
aI183359
aI183360
aI117837
aI117840
aI150611
aI150625
aI183394
aI52329
aI52332
aI117871
aI183428
aI183432
aI150667
aI117914
aI52379
aI183460
aI150694
aI90655
aI52413
aI183488
aI19651
aI19663
aI183505
aI19666
aI183508
aI156196
aI19676
aI19678
aI183522
aI183545
aI183549
aI52490
aI150798
aI183570
aI30596
aI188976
aI150823
aI183592
aI183603
aI128907
aI90678
aI52554
aI150865
aI150871
aI183648
aI19833
aI19837
aI128918
aI183689
aI19864
aI183720
aI183736
aI183738
aI52667
aI183740
aI52669
aI150992
aI183770
aI205391
aI19937
aI52706
aI151013
aI90705
aI52727
aI183800
aI183802
aI52731
aI52748
aI183832
aI183835
aI183846
aI183854
aI85551
aI151089
aI151097
aI183875
aI183881
aI151125
aI85591
aI183904
aI205415
aI145344
aI52866
aI52874
aI20107
aI151182
aI85650
aI85665
aI183985
aI20148
aI151222
aI85697
aI184002
aI151238
aI183585
aI20172
aI85715
aI151253
aI184022
aI52956
aI184031
aI184033
aI184034
aI20221
aI85767
aI184073
aI184074
aI151307
aI184088
aI184089
aI167617
aI53020
aI184093
aI184096
aI184106
aI151349
aI184119
aI194527
aI151357
aI134454
aI151373
aI184142
aI53071
aI85840
aI184145
aI85845
aI20316
aI184161
aI53098
aI151422
aI107160
aI85906
aI184212
aI184215
aI183621
aI20391
aI20395
aI20396
aI184237
aI85938
aI184259
aI184269
aI97791
aI53211
aI53215
aI20448
aI85993
aI184310
aI184328
aI151571
aI205487
aI184349
aI20519
aI41650
aI151603
aI189108
aI184381
aI157807
aI184404
aI86109
aI20587
aI53360
aI184437
aI20602
aI156351
aI86152
aI151695
aI20627
aI20637
aI86174
aI86176
aI129051
aI118955
aI151724
aI118959
aI20657
aI86202
aI118980
aI205517
aI53456
aI184549
aI119015
aI86267
aI119039
aI86273
aI151813
aI20742
aI184585
aI151818
aI184588
aI184596
aI119073
aI205531
aI53544
aI151849
aI184620
aI184625
aI151862
aI119117
aI20817
aI184664
aI53593
aI97804
aI20833
aI86371
aI184679
aI86378
aI20846
aI86383
aI119160
aI86393
aI189162
aI53635
aI119173
aI119177
aI184719
aI86418
aI53655
aI119197
aI184735
aI184738
aI86442
aI53676
aI184758
aI20921
aI53690
aI152024
aI184793
aI119261
aI196010
aI53734
aI152040
aI152042
aI184817
aI184820
aI86520
aI86521
aI152058
aI20995
aI184838
aI21006
aI119319
aI21022
aI152095
aI25350
aI21030
aI53814
aI53816
aI184893
aI21054
aI184904
aI184909
aI152150
aI178276
aI205926
aI184928
aI129126
aI184934
aI152170
aI152173
aI152176
aI204744
aI196015
aI86648
aI86652
aI184957
aI205589
aI119435
aI86668
aI205836
aI96366
aI205593
aI152217
aI184990
aI53922
aI53928
aI119485
aI53952
aI119491
aI119499
aI205602
aI185038
aI21200
aI185046
aI185048
aI205605
aI85456
aI185062
aI185071
aI205608
aI21239
aI172842
aI86784
aI86790
aI86794
aI152331
aI185106
aI54038
aI54039
aI200385
aI54070
aI54071
aI185148
aI185149
aI134624
aI86861
aI119640
aI185177
aI119649
aI152424
aI152425
aI86894
aI119665
aI185204
aI123710
aI21374
aI152451
aI185235
aI185237
aI152472
aI86947
aI152487
aI54184
aI178332
aI185267
aI152503
aI119736
aI86972
aI119749
aI54214
aI152520
aI119762
aI86998
aI185307
aI218089
aI119800
aI185345
aI87049
aI205655
aI21521
aI87066
aI185378
aI119844
aI205660
aI185388
aI21551
aI54320
aI152635
aI119868
aI87106
aI152644
aI185421
aI119896
aI185438
aI119906
aI152675
aI194748
aI119920
aI119923
aI54403
aI185481
aI152715
aI87182
aI87185
aI63684
aI185498
aI21660
aI21665
aI119973
aI87213
aI152752
aI54449
aI21683
aI152764
aI63690
aI119998
aI185537
aI185539
aI87237
aI185547
aI194765
aI185563
aI152805
aI185581
aI21743
aI54520
aI185624
aI185631
aI152865
aI87337
aI91016
aI120118
aI21817
aI185664
aI87365
aI185679
aI185682
aI185697
aI185712
aI21879
aI185723
aI185727
aI152960
aI54659
aI54664
aI185739
aI54668
aI87437
aI185745
aI120219
aI152991
aI185765
aI162033
aI87471
aI54725
aI21961
aI175312
aI54736
aI21971
aI188406
aI185818
aI63739
aI185831
aI185841
aI185862
aI185872
aI153112
aI87579
aI22047
aI9136
aI185899
aI153144
aI153145
aI185915
aI120380
aI153153
aI153170
aI22100
aI25529
aI153176
aI120409
aI185947
aI185950
aI120416
aI123835
aI73842
aI205756
aI185965
aI153200
aI185971
aI185973
aI185989
aI54923
aI25538
aI186002
aI120471
aI186008
aI186009
aI186030
aI153264
aI186036
aI22199
aI186040
aI167540
aI153274
aI205770
aI54986
aI186063
aI134776
aI22228
aI55000
aI186073
aI153318
aI186092
aI186096
aI186101
aI205783
aI186125
aI22293
aI186138
aI200326
aI186150
aI22311
aI22314
aI120622
aI186160
aI186172
aI186174
aI153410
aI186183
aI120658
aI186202
aI55143
aI153455
aI120688
aI186232
aI186233
aI129343
aI120706
aI22407
aI22409
aI97259
aI153488
aI186262
aI55193
aI205811
aI22452
aI186294
aI136048
aI186307
aI22478
aI120788
aI186328
aI186335
aI186348
aI120815
aI120831
aI153600
aI205824
aI22531
aI186374
aI153609
aI120846
aI22545
aI153619
aI153620
aI94588
aI153630
aI134832
aI186405
aI153643
aI94589
aI151220
aI22587
aI186436
aI186441
aI120913
aI120921
aI186459
aI55388
aI186468
aI186473
aI55410
aI42003
aI120950
aI186494
aI69312
aI151233
aI55438
aI153750
aI32398
aI186529
aI167622
aI55469
aI194932
aI173088
aI153797
aI31096
aI219346
aI121052
aI178554
aI153822
aI153828
aI186597
aI153844
aI55545
aI186618
aI103590
aI153877
aI186647
aI186654
aI186658
aI55587
aI153892
aI186662
aI121128
aI200415
aI186693
aI55640
aI186713
aI205882
aI186723
aI186735
aI186739
aI121212
aI107584
aI205889
aI129432
aI186771
aI55710
aI121270
aI121291
aI20980
aI200440
aI186834
aI186846
aI186853
aI186856
aI27213
aI55797
aI186873
aI186883
aI186894
aI121363
aI55831
aI186909
aI121375
aI205915
aI154156
aI186932
aI85769
aI121401
aI121405
aI186954
aI200461
aI186968
aI121441
aI56418
aI88679
aI88682
aI186989
aI121455
aI88700
aI121473
aI205931
aI55943
aI55946
aI187022
aI121488
aI88721
aI88727
aI121496
aI154265
aI88732
aI121519
aI55985
aI88754
aI203758
aI55995
aI154302
aI205943
aI195021
aI154325
aI200485
aI154348
aI200488
aI56050
aI187135
aI187136
aI154369
aI88835
aI154376
aI154380
aI200494
aI187158
aI154393
aI56090
aI134960
aI195035
aI88889
aI187201
aI121671
aI187209
aI85819
aI56166
aI187239
aI201547
aI121718
aI154500
aI154501
aI154506
aI121741
aI187280
aI27434
aI56211
aI56216
aI154523
aI187294
aI187297
aI88997
aI205980
aI89003
aI56239
aI56243
aI89012
aI187318
aI187321
aI200522
aI91297
aI187338
aI187342
aI89050
aI187357
aI205990
aI187385
aI187387
aI121855
aI89089
aI154626
aI56323
aI154629
aI56329
aI187404
aI187405
aI154639
aI187416
aI56353
aI187430
aI53084
aI206002
aI89134
aI121903
aI154677
aI89146
aI23612
aI20321
aI195084
aI121930
aI187467
aI154705
aI154706
aI187475
aI121943
aI187481
aI154721
aI154722
aI154735
aI154739
aI23668
aI187510
aI154747
aI187517
aI56447
aI187521
aI56456
aI121994
aI23694
aI154768
aI154773
aI187543
aI122014
aI187554
aI23727
aI23732
aI89277
aI172098
aI200567
aI187598
aI89298
aI187611
aI23772
aI122077
aI203107
aI56546
aI122087
aI154858
aI122091
aI187628
aI56564
aI187637
aI187640
aI23801
aI89341
aI187648
aI187649
aI154887
aI154889
aI200578
aI187666
aI187669
aI122137
aI23834
aI206042
aI187692
aI154925
aI56631
aI162356
aI124127
aI154945
aI56642
aI187719
aI187724
aI122192
aI109053
aI89431
aI187738
aI122212
aI154981
aI154988
aI195133
aI89458
aI207020
aI187776
aI187777
aI206059
aI187784
aI187792
aI89490
aI187796
aI187797
aI56728
aI56729
aI187803
aI187804
aI155038
aI187809
aI187810
aI187816
aI187818
aI187823
aI122293
aI187833
aI187836
aI187837
aI187838
aI122303
aI187841
aI162379
aI187844
aI89850
aI187848
aI56779
aI56780
aI187855
aI155089
aI56789
aI187866
aI24028
aI187869
aI122335
aI187872
aI187873
aI189691
aI187877
aI155110
aI187879
aI187882
aI53159
aI187884
aI56827
aI187901
aI187904
aI187905
aI155140
aI187912
aI24073
aI187914
aI187917
aI187918
aI187919
aI187924
aI187927
aI187928
aI187930
aI89629
aI24097
aI187938
aI156934
aI89646
aI89649
aI187954
aI187956
aI89653
aI93549
aI56890
aI187966
aI187969
aI187975
aI155208
aI187978
aI187979
aI187980
aI56910
aI187983
aI187986
aI187987
aI189710
aI187991
aI122460
aI188000
aI188001
aI56931
aI188004
aI56935
aI122472
aI24169
aI188018
aI56948
aI805
aI188023
aI188026
aI188028
aI188029
aI188030
aI188031
aI188032
aI188033
aI188035
aI89733
aI197209
aI188040
aI188043
aI188050
aI155284
aI188053
aI188054
aI188061
aI188063
aI188064
aI188070
aI188071
aI188078
aI122544
aI122545
aI188082
aI188084
aI188088
aI188090
aI188091
aI188093
aI57022
aI188103
aI188105
aI89812
aI25892
aI188123
aI188124
aI155360
aI102352
aI188138
aI188139
aI188140
aI809
aI188142
aI122607
aI188147
aI188151
aI188152
aI200660
aI188154
aI188157
aI24318
aI188159
aI188162
aI57093
aI188166
aI188169
aI188172
aI188174
aI188175
aI188178
aI195203
aI124206
aI188185
aI156975
aI188191
aI188192
aI188195
aI155431
aI188200
aI155434
aI188203
aI188208
aI189747
aI188212
aI188216
aI188220
aI188221
aI184288
aI155462
aI188232
aI155465
aI188242
aI24404
aI89943
aI122712
aI188253
aI188254
aI188261
aI188262
aI24423
aI206140
aI122731
aI188268
aI188269
aI89966
aI188271
aI188274
aI188277
aI89977
aI188284
aI188288
aI122761
aI188298
aI89996
aI188305
aI188321
aI188325
aI188328
aI57257
aI188330
aI188335
aI188336
aI188338
aI188340
aI188342
aI188347
aI188349
aI188353
aI188355
aI188356
aI188357
aI188364
aI188367
aI200696
aI188372
aI188374
aI155607
aI188380
aI188381
aI188382
aI24544
aI188386
aI188387
aI188393
aI188403
aI24566
aI188414
aI188415
aI155650
aI188420
aI188424
aI188429
aI188433
aI188434
aI188435
aI188442
aI57371
aI188446
aI188450
aI24612
aI188453
aI188454
aI188455
aI24617
aI188459
aI188461
aI188462
aI188463
aI188465
aI188466
aI155701
aI188470
aI188474
aI188476
aI188478
aI188479
aI188480
aI188481
aI188492
aI188494
aI188495
aI122960
aI188501
aI188506
aI32464
aI188509
aI188512
aI188514
aI188515
aI90215
aI155752
aI188522
aI188525
aI188529
aI188530
aI188535
aI188540
aI188552
aI123020
aI188557
aI188559
aI188562
aI155798
aI24728
aI188572
aI90270
aI188582
aI188584
aI188593
aI188594
aI188595
aI188597
aI188600
aI155833
aI24763
aI188604
aI188607
aI188609
aI188611
aI188618
aI188621
aI188622
aI188626
aI188627
aI188630
aI188631
aI188632
aI123097
aI188635
aI188638
aI188641
aI188642
aI188650
aI188651
aI188654
aI188666
aI123131
aI188669
aI188671
aI188672
aI188673
aI188675
aI188680
aI188681
aI188682
aI124290
aI188688
aI188689
aI188692
aI188693
aI123159
aI188696
aI188697
aI195290
aI188703
aI24865
aI188710
aI188717
aI188719
aI188720
aI188726
aI188727
aI188731
aI123196
aI157066
aI188735
aI188736
aI188740
aI24905
aI157069
aI188754
aI188756
aI188759
aI188760
aI188762
aI188764
aI188768
aI188770
aI36923
aI188776
aI90473
aI188778
aI188779
aI188781
aI188783
aI188791
aI188798
aI188799
aI188800
aI188802
aI188806
aI188807
aI123282
aI188819
aI188821
aI188824
aI188828
aI90527
aI188834
aI188842
aI156077
aI188847
aI188851
aI188853
aI188860
aI4170
aI188864
aI90563
aI188869
aI25031
aI188872
aI188874
aI188875
aI90574
aI69709
aI188880
aI188881
aI188882
aI188883
aI188885
aI156122
aI188891
aI188895
aI188901
aI188903
aI188912
aI188913
aI90621
aI188927
aI188928
aI188944
aI188948
aI188951
aI188952
aI188953
aI188956
aI188959
aI188961
aI188964
aI188968
aI188969
aI188974
aI188975
aI156208
aI188979
aI188982
aI188985
aI188986
aI189877
aI188993
aI90690
aI188996
aI25165
aI25166
aI189008
aI189009
aI189010
aI189013
aI189020
aI189023
aI156257
aI25186
aI189036
aI189052
aI189061
aI189065
aI189068
aI123533
aI189073
aI189075
aI189076
aI189081
aI189085
aI189087
aI189093
aI123561
aI189098
aI189099
aI189103
aI189105
aI123571
aI156340
aI189109
aI189112
aI156345
aI189114
aI90815
aI189120
aI189129
aI189130
aI189134
aI25299
aI156373
aI90839
aI189147
aI189150
aI25311
aI189153
aI200827
aI189158
aI189160
aI90858
aI189164
aI90863
aI189169
aI189174
aI25335
aI90874
aI25339
aI189185
aI189186
aI189190
aI189192
aI189194
aI189195
aI189196
aI189197
aI189200
aI189205
aI189210
aI189213
aI189216
aI189217
aI189223
aI123694
aI156463
aI189233
aI123700
aI189238
aI189242
aI189245
aI189246
aI189247
aI90947
aI189252
aI189256
aI189259
aI189272
aI189273
aI189279
aI189283
aI189286
aI162620
aI189291
aI189299
aI189301
aI156538
aI189307
aI156543
aI80704
aI189315
aI189320
aI189322
aI189325
aI206317
aI130693
aI189329
aI189334
aI123804
aI102554
aI189342
aI123810
aI189349
aI206321
aI189353
aI189354
aI189356
aI189357
aI189361
aI123826
aI189363
aI189365
aI156601
aI189371
aI189375
aI189378
aI189387
aI156624
aI189395
aI189397
aI189407
aI189409
aI189413
aI189414
aI189416
aI189422
aI189427
aI156664
aI123897
aI189435
aI189442
aI189444
aI189448
aI189450
aI189452
aI189458
aI206339
aI200878
aI123926
aI31577
aI123935
aI189473
aI106693
aI156711
aI189480
aI189482
aI189486
aI189488
aI189492
aI206345
aI189504
aI189508
aI189512
aI58441
aI189515
aI25676
aI189517
aI189521
aI189523
aI189527
aI189541
aI189542
aI189548
aI200893
aI156791
aI58489
aI189562
aI189564
aI189566
aI189569
aI124038
aI189575
aI189577
aI25741
aI91282
aI124155
aI189592
aI25759
aI189601
aI189603
aI189610
aI189612
aI189617
aI162675
aI25781
aI189626
aI91326
aI124097
aI58562
aI189636
aI25799
aI189646
aI156880
aI189652
aI189656
aI189658
aI91355
aI189660
aI25821
aI189663
aI58602
aI189675
aI189678
aI189681
aI189689
aI189690
aI91387
aI189692
aI189694
aI25855
aI189698
aI189702
aI124171
aI189708
aI91406
aI69848
aI189723
aI189724
aI189727
aI189728
aI189732
aI189733
aI189738
aI157234
aI189742
aI200925
aI189745
aI189746
aI58675
aI189749
aI189752
aI189754
aI58684
aI189757
aI189763
aI189765
aI189767
aI189769
aI189774
aI189776
aI189778
aI189783
aI189784
aI189793
aI91491
aI189797
aI200541
aI189802
aI189803
aI124272
aI25970
aI58741
aI189814
aI189815
aI189819
aI189823
aI25986
aI91530
aI189837
aI189840
aI189841
aI189842
aI189843
aI189849
aI189852
aI189853
aI189859
aI189862
aI189864
aI189866
aI189867
aI189869
aI157102
aI189873
aI162718
aI189883
aI189884
aI189895
aI189901
aI189907
aI189909
aI58838
aI189916
aI189919
aI107799
aI189921
aI189922
aI189924
aI189929
aI189931
aI189932
aI189933
aI189935
aI58865
aI58868
aI124405
aI189944
aI189949
aI189953
aI189956
aI26117
aI26121
aI189963
aI189965
aI189966
aI189967
aI189968
aI91669
aI157206
aI189977
aI189978
aI189980
aI189986
aI91683
aI91687
aI91688
aI200967
aI189996
aI91695
aI190002
aI206430
aI190006
aI200548
aI190011
aI190013
aI190019
aI190020
aI190021
aI190026
aI190027
aI58958
aI190034
aI190041
aI190045
aI190047
aI91744
aI91748
aI26218
aI58989
aI26223
aI190065
aI190066
aI190068
aI190070
aI157307
aI190080
aI124547
aI157316
aI157328
aI190104
aI190105
aI190106
aI157295
aI59045
aI206449
aI91762
aI26286
aI190130
aI190136
aI91837
aI157374
aI190148
aI190149
aI26311
aI124619
aI91856
aI190161
aI124627
aI190165
aI157402
aI124637
aI200997
aI26338
aI190185
aI190186
aI59116
aI26350
aI124657
aI190204
aI26240
aI190212
aI190213
aI190214
aI190216
aI190217
aI124682
aI157457
aI190226
aI201006
aI190231
aI190232
aI190244
aI190247
aI190249
aI190256
aI190259
aI190260
aI190262
aI206473
aI190264
aI190265
aI124731
aI190274
aI91971
aI190276
aI190277
aI190278
aI190279
aI190289
aI190290
aI190295
aI26456
aI190297
aI190299
aI190302
aI190303
aI190307
aI190312
aI190314
aI190318
aI190324
aI190325
aI190326
aI190328
aI190332
aI190333
aI190334
aI190335
aI92034
aI190339
aI190341
aI157574
aI190344
aI206015
aI162797
aI190352
aI190353
aI190356
aI190359
aI190363
aI190364
aI190370
aI190376
aI124842
aI190379
aI190380
aI190383
aI190384
aI190385
aI92082
aI190388
aI190390
aI59319
aI92091
aI59329
aI190405
aI190406
aI190409
aI190410
aI190411
aI190413
aI190414
aI190416
aI190418
aI157652
aI59355
aI195578
aI190431
aI190433
aI190435
aI190436
aI190442
aI190447
aI190448
aI190450
aI190451
aI59381
aI190456
aI190457
aI190464
aI190466
aI59395
aI59397
aI190470
aI190472
aI190476
aI59406
aI92175
aI190481
aI190483
aI190489
aI190490
aI190491
aI190493
aI190494
aI124966
aI190506
aI190509
aI37213
aI26674
aI190517
aI190518
aI190523
aI124990
aI26690
aI195595
aI190532
aI26693
aI26696
aI190538
aI190541
aI157774
aI26704
aI184675
aI190548
aI26718
aI190559
aI190569
aI190574
aI190141
aI190576
aI190577
aI92274
aI190579
aI92277
aI190583
aI190585
aI190588
aI190597
aI125063
aI190600
aI125065
aI92302
aI190609
aI173763
aI151918
aI190622
aI190623
aI190627
aI190628
aI157861
aI190634
aI190635
aI190638
aI190641
aI190642
aI190643
aI190644
aI190646
aI190647
aI190648
aI190649
aI190656
aI190657
aI190663
aI190665
aI190670
aI92369
aI190675
aI190676
aI190677
aI190679
aI190681
aI190682
aI190684
aI190686
aI190688
aI190160
aI26853
aI190694
aI190701
aI151933
aI125170
aI190707
aI190708
aI190711
aI190712
aI190713
aI190714
aI59093
aI125187
aI92423
aI190735
aI190737
aI125204
aI190745
aI190758
aI190760
aI190762
aI190763
aI190765
aI190774
aI190775
aI190776
aI190783
aI190784
aI201099
aI26948
aI190790
aI125259
aI190796
aI92493
aI190798
aI125263
aI190806
aI92505
aI190811
aI190818
aI190822
aI201105
aI64572
aI190827
aI190829
aI190833
aI97342
aI190844
aI190846
aI27007
aI190850
aI190853
aI190855
aI190862
aI190863
aI190865
aI190866
aI158101
aI190870
aI190872
aI190873
aI190875
aI27036
aI190877
aI190881
aI4507
aI158116
aI190889
aI190893
aI190896
aI190902
aI190903
aI190905
aI190906
aI27069
aI190912
aI190915
aI92614
aI158151
aI206583
aI190924
aI92621
aI190926
aI190929
aI190932
aI190938
aI190941
aI125409
aI155843
aI158183
aI190952
aI190954
aI158188
aI190958
aI190962
aI190966
aI125431
aI190968
aI190970
aI206591
aI190982
aI190983
aI190984
aI125450
aI27148
aI190998
aI158232
aI59140
aI125466
aI191003
aI191005
aI191007
aI191008
aI125475
aI191014
aI125481
aI158251
aI191021
aI191022
aI59951
aI191027
aI158260
aI91913
aI191035
aI191037
aI191038
aI92737
aI191042
aI191048
aI191053
aI191059
aI191064
aI59994
aI191069
aI191072
aI92770
aI191075
aI191081
aI191083
aI191084
aI191088
aI191094
aI130153
aI92799
aI191104
aI191109
aI27272
aI27276
aI158349
aI191119
aI191120
aI91928
aI92819
aI191124
aI191128
aI191131
aI60065
aI191139
aI158373
aI158378
aI92844
aI191150
aI191153
aI92853
aI191159
aI191161
aI191165
aI191169
aI191170
aI191172
aI191174
aI191176
aI191180
aI191181
aI191182
aI191184
aI162936
aI191186
aI191190
aI191191
aI92890
aI191197
aI206629
aI60135
aI92904
aI27371
aI191212
aI198406
aI191219
aI27381
aI191223
aI191227
aI191230
aI201173
aI191233
aI191238
aI191241
aI158475
aI191249
aI27418
aI191260
aI191263
aI191266
aI191267
aI191271
aI191272
aI191274
aI191275
aI191276
aI60208
aI191285
aI191288
aI191289
aI191290
aI191292
aI191294
aI191299
aI191302
aI191303
aI191304
aI60233
aI191307
aI60237
aI191312
aI191313
aI60242
aI201187
aI191316
aI191318
aI191320
aI93018
aI191323
aI191326
aI158561
aI191330
aI191331
aI191332
aI60261
aI191334
aI191335
aI191341
aI93054
aI162965
aI60316
aI191389
aI191403
aI191405
aI191409
aI191410
aI191412
aI191415
aI191417
aI191421
aI191422
aI191424
aI93121
aI191426
aI191427
aI158662
aI191431
aI191436
aI191441
aI206670
aI191446
aI191447
aI191448
aI191449
aI86522
aI191468
aI191470
aI191472
aI191478
aI191479
aI191483
aI191484
aI158721
aI191491
aI191495
aI191498
aI93199
aI191505
aI191506
aI191509
aI191513
aI191514
aI191519
aI157531
aI191525
aI191533
aI158769
aI158772
aI16333
aI158787
aI191556
aI93253
aI191559
aI191561
aI158797
aI191567
aI97464
aI191577
aI191578
aI191579
aI191583
aI191585
aI191588
aI191591
aI191595
aI191598
aI191605
aI191608
aI191609
aI191612
aI191618
aI191622
aI158856
aI191627
aI191630
aI191633
aI191634
aI191641
aI191643
aI191644
aI191646
aI191647
aI27808
aI93346
aI191652
aI191653
aI191656
aI158889
aI191660
aI191663
aI191666
aI191667
aI191670
aI191676
aI191677
aI27840
aI191681
aI191682
aI60613
aI191687
aI158923
aI191693
aI191696
aI191701
aI191702
aI206713
aI191705
aI191706
aI191711
aI191717
aI27881
aI191722
aI191726
aI59261
aI191729
aI191734
aI191738
aI191744
aI60675
aI191748
aI191749
aI191754
aI201261
aI191760
aI206062
aI191764
aI191769
aI191772
aI191773
aI191775
aI17297
aI190342
aI191782
aI191785
aI97501
aI201267
aI27961
aI191803
aI191807
aI27974
aI60746
aI191828
aI191832
aI191835
aI191837
aI191838
aI93535
aI191844
aI191846
aI191851
aI191852
aI191853
aI93550
aI191855
aI130280
aI191864
aI60793
aI191867
aI191869
aI191873
aI191876
aI191878
aI191887
aI191888
aI191890
aI159124
aI28055
aI93593
aI191898
aI191899
aI191900
aI191901
aI191904
aI191905
aI191908
aI191916
aI159155
aI191927
aI93626
aI191931
aI191937
aI201291
aI191940
aI191946
aI92066
aI159182
aI86605
aI93650
aI191958
aI60888
aI191962
aI93663
aI159201
aI71860
aI191973
aI60909
aI191982
aI191984
aI191986
aI28147
aI191989
aI191991
aI191993
aI191994
aI190378
aI93694
aI159235
aI93702
aI192009
aI192012
aI192013
aI60942
aI93711
aI192016
aI192017
aI192023
aI192025
aI93722
aI159259
aI159262
aI192031
aI192035
aI192041
aI192042
aI192043
aI192050
aI192051
aI159285
aI192054
aI192056
aI192060
aI192061
aI192064
aI192065
aI192066
aI159299
aI192070
aI192074
aI26551
aI28236
aI192077
aI192078
aI192080
aI140605
aI192086
aI61018
aI159323
aI192093
aI159330
aI157627
aI192103
aI206780
aI192109
aI192113
aI192116
aI192117
aI192118
aI61047
aI192121
aI159358
aI192127
aI93826
aI93830
aI192135
aI192136
aI192141
aI156974
aI192158
aI61092
aI126629
aI61094
aI192167
aI192175
aI192176
aI61106
aI159411
aI192182
aI26569
aI126648
aI28345
aI195872
aI93892
aI192197
aI192200
aI192203
aI192205
aI92109
aI192211
aI159444
aI124878
aI61144
aI93914
aI28380
aI192221
aI192222
aI192225
aI192226
aI61158
aI192233
aI93932
aI192238
aI192244
aI201342
aI61175
aI61176
aI192250
aI192251
aI192252
aI192255
aI192261
aI192268
aI192271
aI206808
aI192279
aI159516
aI192291
aI159524
aI192294
aI192295
aI192300
aI28462
aI192303
aI192306
aI126773
aI192311
aI192312
aI192316
aI192317
aI192319
aI206816
aI192324
aI192325
aI192328
aI192330
aI192335
aI192336
aI192339
aI28500
aI126809
aI192352
aI37520
aI192354
aI61283
aI94052
aI192363
aI28524
aI192365
aI192368
aI192369
aI192371
aI192373
aI192374
aI94074
aI192382
aI192383
aI192385
aI159622
aI192391
aI192393
aI192394
aI192397
aI159632
aI192401
aI192403
aI192413
aI61342
aI192415
aI206833
aI61353
aI192426
aI192427
aI192430
aI192436
aI61366
aI192441
aI192445
aI159678
aI157685
aI192450
aI192451
aI192454
aI192462
aI192464
aI192465
aI192466
aI126931
aI192480
aI192481
aI206843
aI192487
aI192493
aI192494
aI21160
aI126964
aI192502
aI192503
aI192505
aI28666
aI126972
aI192515
aI192519
aI192520
aI192521
aI192525
aI168621
aI192531
aI192542
aI159775
aI127008
aI28705
aI192549
aI159782
aI28711
aI127022
aI192559
aI192562
aI192563
aI192564
aI192565
aI192567
aI61496
aI28729
aI192574
aI192576
aI195936
aI192579
aI28740
aI192584
aI28746
aI192587
aI192588
aI192589
aI192590
aI192592
aI192593
aI192594
aI192597
aI192602
aI192603
aI192604
aI127069
aI192607
aI192608
aI192610
aI192613
aI28774
aI102757
aI192619
aI192625
aI192628
aI192630
aI127096
aI94330
aI192637
aI94337
aI192650
aI192652
aI192656
aI127126
aI192663
aI192666
aI192671
aI192675
aI192682
aI94379
aI192685
aI192687
aI192688
aI192689
aI192690
aI192692
aI192693
aI192696
aI192706
aI192707
aI192708
aI192710
aI192712
aI192717
aI192719
aI192720
aI192721
aI192722
aI127191
aI192729
aI192748
aI192749
aI192750
aI192753
aI192754
aI192756
aI192757
aI192760
aI61689
aI192762
aI192767
aI192768
aI192770
aI192772
aI61705
aI192778
aI160011
aI160017
aI192793
aI192794
aI192795
aI160036
aI192806
aI160040
aI192811
aI192812
aI192818
aI192819
aI192821
aI160054
aI28986
aI192827
aI192830
aI94538
aI192843
aI192845
aI192846
aI192848
aI192850
aI192854
aI192857
aI192859
aI94561
aI192870
aI192871
aI192873
aI29036
aI192884
aI206910
aI192887
aI192889
aI94586
aI192891
aI160124
aI192893
aI160126
aI195989
aI206912
aI61826
aI201451
aI192903
aI61836
aI29072
aI202827
aI192915
aI192919
aI29081
aI192922
aI192923
aI192925
aI192930
aI163227
aI192937
aI192938
aI192939
aI192945
aI127410
aI192949
aI61878
aI192952
aI192954
aI192959
aI192963
aI127429
aI61894
aI192967
aI192969
aI192971
aI192973
aI192978
aI192986
aI94683
aI192990
aI192993
aI192996
aI61927
aI193003
aI193007
aI127474
aI61939
aI193016
aI193017
aI127482
aI193021
aI193022
aI193023
aI193024
aI193027
aI193028
aI193030
aI193034
aI193042
aI193044
aI193051
aI193055
aI193062
aI193063
aI127530
aI193068
aI193069
aI193071
aI193072
aI127538
aI193075
aI193076
aI190558
aI62008
aI193083
aI193084
aI193086
aI193087
aI193091
aI193093
aI193095
aI193097
aI193098
aI193100
aI94797
aI193103
aI160336
aI160339
aI193108
aI5339
aI193112
aI193115
aI193116
aI193121
aI193123
aI160356
aI193130
aI193131
aI193132
aI193142
aI193143
aI193145
aI193148
aI62079
aI193152
aI206955
aI193157
aI193158
aI160391
aI94859
aI193164
aI62093
aI193166
aI193168
aI193170
aI29336
aI205981
aI190575
aI193180
aI94883
aI193189
aI94889
aI193199
aI193204
aI70430
aI193206
aI160443
aI193213
aI29375
aI193216
aI160451
aI94919
aI193226
aI26743
aI193228
aI193229
aI193231
aI193232
aI193233
aI193237
aI127702
aI193240
aI193241
aI193243
aI193244
aI160479
aI94946
aI193251
aI29413
aI193256
aI193258
aI193260
aI94957
aI193266
aI193267
aI193268
aI193270
aI193271
aI193274
aI193279
aI62208
aI193281
aI193283
aI94980
aI193285
aI193287
aI193297
aI193299
aI193301
aI193302
aI95000
aI193307
aI193308
aI193309
aI160543
aI193313
aI193314
aI193315
aI193316
aI193318
aI193319
aI193320
aI193322
aI193324
aI193326
aI193329
aI193332
aI193339
aI95036
aI193342
aI193344
aI206987
aI185142
aI193352
aI29513
aI160588
aI193359
aI193364
aI193371
aI29537
aI193381
aI193383
aI193386
aI95083
aI193397
aI193403
aI193405
aI193407
aI193410
aI160643
aI193416
aI127881
aI193418
aI29580
aI193422
aI193428
aI193430
aI193431
aI193432
aI193435
aI29596
aI193437
aI193441
aI193442
aI193445
aI127910
aI29609
aI29612
aI193454
aI29617
aI193460
aI193467
aI193471
aI193473
aI193475
aI95174
aI193480
aI193481
aI193482
aI193483
aI127948
aI127951
aI193495
aI193500
aI193504
aI193509
aI193510
aI193512
aI193514
aI62446
aI193524
aI193527
aI160761
aI95227
aI193533
aI29694
aI193538
aI193541
aI160774
aI193544
aI174252
aI193547
aI160786
aI128023
aI193562
aI193566
aI193569
aI193570
aI62502
aI193575
aI29736
aI193577
aI193580
aI193581
aI95278
aI193584
aI193592
aI193595
aI193596
aI193598
aI193601
aI193607
aI193608
aI193609
aI29770
aI160846
aI193617
aI29779
aI160854
aI29783
aI193628
aI62561
aI193637
aI193638
aI128107
aI193644
aI193648
aI193650
aI193654
aI193658
aI128123
aI193664
aI160897
aI162994
aI193672
aI193683
aI193684
aI193686
aI193688
aI193692
aI193697
aI162776
aI193702
aI174279
aI193712
aI193713
aI193714
aI193715
aI193726
aI193730
aI193736
aI193738
aI95436
aI193742
aI193744
aI29905
aI95443
aI193749
aI193750
aI29911
aI160987
aI160990
aI95456
aI128229
aI193773
aI193774
aI193776
aI193778
aI193780
aI193782
aI193783
aI193786
aI29949
aI193792
aI193796
aI193806
aI95505
aI193811
aI95515
aI128284
aI193821
aI193823
aI193828
aI193829
aI193830
aI193832
aI193840
aI95537
aI193842
aI193843
aI30005
aI193847
aI193850
aI193859
aI193860
aI193861
aI193864
aI193869
aI193871
aI95569
aI193874
aI193876
aI193877
aI193878
aI193879
aI193881
aI193884
aI193885
aI193887
aI193889
aI193890
aI193893
aI193896
aI97852
aI193898
aI193900
aI193901
aI161138
aI193909
aI193913
aI161151
aI193920
aI161153
aI193923
aI193924
aI193927
aI128392
aI193929
aI30091
aI193934
aI193935
aI193941
aI193944
aI193946
aI193948
aI193951
aI95651
aI193958
aI193960
aI193965
aI193971
aI95668
aI193974
aI193975
aI193980
aI193981
aI193983
aI193984
aI193985
aI193986
aI193988
aI193990
aI30154
aI193999
aI194001
aI194003
aI194009
aI194010
aI194011
aI194013
aI207099
aI194021
aI194023
aI95724
aI194029
aI95731
aI194036
aI128502
aI201641
aI161272
aI194042
aI194044
aI161278
aI194047
aI194049
aI194050
aI194056
aI30217
aI194059
aI194061
aI194062
aI194064
aI194065
aI194066
aI161300
aI161301
aI194071
aI194074
aI194078
aI194080
aI194082
aI194083
aI194084
aI194091
aI194095
aI128561
aI194098
aI194099
aI161333
aI194104
aI194108
aI194109
aI194111
aI194115
aI194117
aI194119
aI128590
aI194131
aI161365
aI95831
aI128602
aI128610
aI194147
aI194151
aI194159
aI194161
aI194162
aI194176
aI194180
aI95877
aI30342
aI194184
aI30351
aI194192
aI207128
aI194197
aI194198
aI194199
aI194200
aI194203
aI194204
aI194205
aI194206
aI194212
aI194213
aI194215
aI161448
aI194217
aI194218
aI194225
aI194229
aI194233
aI194234
aI194236
aI194240
aI128710
aI30409
aI194250
aI194253
aI194258
aI194259
aI30420
aI194262
aI194281
aI194282
aI194284
aI194286
aI194289
aI30451
aI194294
aI161529
aI194298
aI194300
aI26922
aI194306
aI194310
aI30473
aI201687
aI96014
aI194319
aI194320
aI194323
aI86838
aI194327
aI194329
aI96027
aI96028
aI194333
aI30495
aI161568
aI194338
aI194339
aI32392
aI194355
aI194356
aI128824
aI194361
aI194365
aI194372
aI194373
aI161614
aI194387
aI194389
aI194392
aI194395
aI194397
aI161631
aI30566
aI161639
aI194410
aI30571
aI194412
aI194416
aI194419
aI194426
aI194427
aI194436
aI194438
aI194441
aI194442
aI194443
aI194444
aI194448
aI194451
aI194454
aI190788
aI194462
aI161695
aI194464
aI96163
aI194468
aI26950
aI194470
aI194474
aI128939
aI194483
aI194489
aI194492
aI194493
aI194503
aI194506
aI194507
aI194512
aI194513
aI194514
aI163491
aI194517
aI96216
aI194521
aI194522
aI158031
aI161759
aI194531
aI194538
aI30699
aI194543
aI194551
aI194555
aI194560
aI129026
aI194564
aI110136
aI161802
aI30733
aI194574
aI194576
aI161812
aI194582
aI194587
aI194588
aI194591
aI194594
aI194599
aI194600
aI194607
aI194609
aI129075
aI194612
aI194619
aI194620
aI194621
aI194625
aI194629
aI194630
aI194632
aI161868
aI125282
aI129102
aI194641
aI161882
aI129115
aI194653
aI194654
aI129122
aI92518
aI30822
aI194665
aI161901
aI194670
aI30834
aI194676
aI194677
aI129145
aI194686
aI161920
aI194689
aI194693
aI194694
aI194696
aI194698
aI194704
aI194707
aI194713
aI194715
aI194716
aI194726
aI194731
aI194735
aI161971
aI194740
aI194746
aI194747
aI161980
aI194749
aI194752
aI194754
aI194756
aI161989
aI194762
aI63691
aI63693
aI63696
aI162005
aI194774
aI97999
aI194784
aI162017
aI194786
aI108923
aI30950
aI30952
aI194797
aI194800
aI96497
aI98003
aI194806
aI194808
aI194811
aI194819
aI194820
aI194838
aI194839
aI194840
aI194843
aI194844
aI194845
aI158085
aI194856
aI129321
aI129323
aI32477
aI194871
aI194872
aI194876
aI194879
aI96576
aI194881
aI162121
aI98019
aI194902
aI194903
aI200711
aI31065
aI129373
aI194910
aI206429
aI194914
aI129390
aI96626
aI194931
aI96628
aI194936
aI194938
aI194945
aI194953
aI129418
aI152642
aI194958
aI194960
aI194962
aI194963
aI194967
aI194968
aI194969
aI31135
aI194976
aI63905
aI194978
aI194979
aI194980
aI194981
aI162214
aI194992
aI194998
aI195006
aI129480
aI162253
aI129486
aI162260
aI195029
aI63959
aI96731
aI195038
aI195044
aI195046
aI195047
aI195053
aI195056
aI195061
aI195066
aI195067
aI162301
aI162303
aI129538
aI162309
aI195079
aI195081
aI195082
aI195083
aI96780
aI195086
aI195088
aI195089
aI195091
aI162324
aI195099
aI31261
aI195109
aI195112
aI64042
aI195115
aI195116
aI195119
aI195122
aI64052
aI64054
aI195127
aI96827
aI195132
aI129597
aI195136
aI96833
aI195138
aI195139
aI195143
aI129611
aI129612
aI31313
aI162386
aI195155
aI195156
aI195158
aI195160
aI195172
aI195173
aI195174
aI195176
aI195182
aI195186
aI162422
aI195193
aI195194
aI64124
aI96893
aI96894
aI195202
aI31363
aI96903
aI64136
aI195214
aI195220
aI201840
aI195236
aI195239
aI195241
aI162475
aI195245
aI195246
aI195247
aI162482
aI195251
aI195253
aI195255
aI202905
aI195258
aI31420
aI195261
aI195262
aI162496
aI195266
aI195267
aI195271
aI195276
aI195277
aI195281
aI195282
aI96979
aI195286
aI162522
aI195292
aI162527
aI195297
aI195299
aI195300
aI195303
aI31465
aI195307
aI195310
aI195311
aI195320
aI195321
aI195323
aI31484
aI64258
aI195332
aI195334
aI64263
aI195336
aI162572
aI195343
aI64272
aI195356
aI195357
aI195362
aI162596
aI195366
aI195375
aI195382
aI195383
aI195385
aI195386
aI195388
aI129853
aI195395
aI195396
aI195399
aI195400
aI195403
aI195404
aI195411
aI195413
aI195414
aI195417
aI195418
aI195426
aI195427
aI195429
aI92647
aI195439
aI158184
aI195443
aI31611
aI64380
aI195453
aI206185
aI195456
aI163648
aI162705
aI195477
aI195478
aI97175
aI195480
aI195483
aI195486
aI195488
aI195489
aI195491
aI195492
aI195493
aI195494
aI195497
aI195499
aI195501
aI195502
aI195503
aI195505
aI195507
aI195511
aI195512
aI195513
aI129984
aI97219
aI195529
aI195531
aI195532
aI195533
aI195538
aI195541
aI64472
aI195545
aI195546
aI195550
aI195557
aI195563
aI195565
aI195566
aI195567
aI195568
aI64497
aI195572
aI195574
aI195575
aI195576
aI162810
aI130043
aI31740
aI162817
aI195590
aI195592
aI195594
aI130903
aI195600
aI195601
aI162834
aI195605
aI195609
aI195611
aI195613
aI195614
aI64544
aI195621
aI195623
aI64552
aI195626
aI64558
aI130098
aI195635
aI195636
aI97335
aI195644
aI195646
aI64576
aI195652
aI195656
aI195660
aI195663
aI195668
aI195671
aI195676
aI195687
aI195688
aI195689
aI195693
aI195695
aI195699
aI162934
aI195704
aI195711
aI195714
aI64644
aI195717
aI195718
aI195728
aI64657
aI195731
aI195733
aI195737
aI130206
aI185541
aI162977
aI195750
aI195751
aI162986
aI195759
aI201928
aI195762
aI195764
aI195765
aI195766
aI195768
aI195769
aI97470
aI97475
aI130244
aI195787
aI195788
aI163022
aI195795
aI201935
aI195804
aI195805
aI195810
aI195812
aI195813
aI97510
aI195816
aI31978
aI31979
aI195821
aI163054
aI195823
aI195824
aI195827
aI195834
aI195835
aI195838
aI195840
aI195841
aI195843
aI195845
aI195853
aI195855
aI195857
aI32018
aI163091
aI195860
aI195861
aI191023
aI97565
aI64799
aI130336
aI195875
aI195880
aI97577
aI163114
aI195884
aI130349
aI195887
aI195890
aI195897
aI64826
aI195901
aI195903
aI195907
aI195908
aI130375
aI195913
aI163146
aI163151
aI163154
aI195923
aI195924
aI195927
aI195930
aI64354
aI195935
aI64864
aI195937
aI163172
aI130405
aI195944
aI195945
aI195950
aI195955
aI97653
aI195963
aI195965
aI195968
aI195971
aI195972
aI97671
aI195976
aI195979
aI64913
aI195986
aI195987
aI163221
aI97687
aI195992
aI195995
aI195997
aI196003
aI196004
aI196009
aI163242
aI163247
aI32176
aI196018
aI196019
aI196021
aI163254
aI196025
aI130497
aI196034
aI196038
aI163271
aI196043
aI196045
aI196047
aI196051
aI130516
aI196053
aI196063
aI163296
aI163297
aI196067
aI196068
aI196069
aI196079
aI196081
aI196082
aI130547
aI196085
aI130552
aI196089
aI196091
aI196092
aI196093
aI196095
aI196096
aI163334
aI65033
aI196108
aI196110
aI196111
aI158296
aI196114
aI196116
aI196118
aI32279
aI130585
aI196122
aI196124
aI196125
aI196128
aI196129
aI196132
aI196133
aI130598
aI163367
aI196137
aI201991
aI196141
aI196142
aI163375
aI196145
aI196147
aI196148
aI196154
aI130620
aI196159
aI196162
aI196164
aI196165
aI196171
aI196173
aI130640
aI81848
aI97874
aI32339
aI196180
aI196183
aI163420
aI196190
aI163771
aI196196
aI196197
aI196201
aI196204
aI196207
aI163445
aI196214
aI97918
aI196227
aI196228
aI97925
aI196230
aI196232
aI32397
aI196238
aI196240
aI196244
aI196247
aI196248
aI196255
aI196259
aI196260
aI163494
aI196264
aI196265
aI196267
aI97968
aI196275
aI196277
aI130759
aI97992
aI32462
aI196303
aI196304
aI196307
aI196308
aI196311
aI196312
aI130777
aI196314
aI196315
aI196317
aI130784
aI196322
aI196323
aI196325
aI196330
aI196335
aI196336
aI130801
aI163572
aI163580
aI196350
aI196352
aI196354
aI163587
aI196359
aI196360
aI196366
aI196367
aI196369
aI196375
aI196376
aI141956
aI196380
aI196382
aI130852
aI196391
aI130857
aI195305
aI196396
aI196397
aI98094
aI196402
aI196404
aI130869
aI196410
aI196413
aI196416
aI196418
aI196421
aI196425
aI202039
aI163660
aI196431
aI163665
aI196439
aI196443
aI196444
aI196445
aI196449
aI196455
aI196456
aI196457
aI196467
aI196478
aI196482
aI196485
aI196487
aI196490
aI130959
aI196506
aI196519
aI196520
aI98219
aI196525
aI130992
aI130993
aI196530
aI190945
aI196538
aI196539
aI196540
aI196542
aI196543
aI163778
aI196551
aI196562
aI158371
aI196568
aI98266
aI98298
aI196574
aI191141
aI196576
aI196582
aI131048
aI163818
aI196587
aI196594
aI196596
aI196600
aI196601
aI196602
atp2
Rp3
.